(dp0
I0
Vlimited
p1
sI1
S'unscientific'
p2
sI2
Vcriminalize
p3
sI3
S'similarity'
p4
sI4
S'interference'
p5
sI5
S'assembles'
p6
sI6
Vchild
p7
sI7
S'desirable'
p8
sI8
S'externally'
p9
sI9
Vprefix
p10
sI10
Vsleep
p11
sI11
Vheliocentric
p12
sI12
Vcontroversial
p13
sI13
S'hating'
p14
sI14
S'woody'
p15
sI15
S'attentive'
p16
sI16
Vadvertently
p17
sI17
Vhate
p18
sI18
S'assembled'
p19
sI19
S'unlimited'
p20
sI20
S'disobeying'
p21
sI21
S'fronts'
p22
sI22
S'violate'
p23
sI23
S'granting'
p24
sI24
Veligible
p25
sI25
S'ventral'
p26
sI26
S'stinky'
p27
sI27
S'leeward'
p28
sI28
Vinhospitality
p29
sI29
Vunsuitableness
p30
sI30
Vthinness
p31
sI31
Vhardness
p32
sI32
S'alphabetic'
p33
sI33
Vlord
p34
sI34
S'sorry'
p35
sI35
S'pride'
p36
sI36
Vdivergent
p37
sI37
Vdenationalise
p38
sI38
Vnonresident
p39
sI39
S'louder'
p40
sI40
S'downstream'
p41
sI41
S'unsold'
p42
sI42
S'aurora'
p43
sI43
Vrise
p44
sI44
S'connects'
p45
sI45
S'beauties'
p46
sI46
S'eugenics'
p47
sI47
Vdisobedient
p48
sI48
Vnontaxable
p49
sI49
S'govern'
p50
sI50
Vconception
p51
sI51
S'hairless'
p52
sI52
S'courageous'
p53
sI53
S'founded'
p54
sI54
S'wooded'
p55
sI55
Virresoluteness
p56
sI56
Vinternally
p57
sI57
S'exaggerate'
p58
sI58
S'clothed'
p59
sI59
Vupload
p60
sI60
S'correct'
p61
sI61
Vadmissible
p62
sI62
S'unrelated'
p63
sI63
S'remoteness'
p64
sI64
Vinutility
p65
sI65
S'smoky'
p66
sI66
S'abolishing'
p67
sI67
S'unauthorised'
p68
sI68
S'immunities'
p69
sI69
S'reliable'
p70
sI70
S'triumph'
p71
sI71
Venjoy
p72
sI72
Vdistributary
p73
sI73
S'expanded'
p74
sI74
S'nigh'
p75
sI75
S'concise'
p76
sI76
S'razed'
p77
sI77
Vconsistent
p78
sI78
S'foreigner'
p79
sI79
S'midsummer'
p80
sI80
Vget_off
p81
sI81
Vlouden
p82
sI82
S'feasibility'
p83
sI83
Vundynamic
p84
sI84
S'likely'
p85
sI85
Vpersuade
p86
sI86
S'consenting'
p87
sI87
S'emptiness'
p88
sI88
S'colourful'
p89
sI89
S'inanimate'
p90
sI90
Veven
p91
sI91
S'established'
p92
sI92
S'oldest'
p93
sI93
Vinelegance
p94
sI94
S'unlisted'
p95
sI95
Vincompatible
p96
sI96
S'declassified'
p97
sI97
S'minuscule'
p98
sI98
S'profitability'
p99
sI99
Vunpreventable
p100
sI100
Vunwholesome
p101
sI101
Vunskilled
p102
sI102
S'irrevocable'
p103
sI103
S'establishes'
p104
sI104
S'new'
p105
sI105
Vnet
p106
sI106
S'increasing'
p107
sI107
Vever
p108
sI108
Vdisintegrate
p109
sI109
Vspecialist
p110
sI110
S'impartial'
p111
sI111
Vinterstate
p112
sI112
Vnever
p113
sI113
S'richest'
p114
sI114
Vhere
p115
sI115
Vundiplomatically
p116
sI116
Vanticlimactic
p117
sI117
Vreported
p118
sI118
Vasymmetry
p119
sI119
Vhumility
p120
sI120
Vimpropriety
p121
sI121
S'shortness'
p122
sI122
Vconform_to
p123
sI123
Vorthodoxy
p124
sI124
Vcontraction
p125
sI125
S'borrowers'
p126
sI126
S'cyclical'
p127
sI127
Vdaughter
p128
sI128
Vinefficiently
p129
sI129
Vsuitably
p130
sI130
Vunstableness
p131
sI131
S'employees'
p132
sI132
Vchanged
p133
sI133
Vperinatal
p134
sI134
S'foolishness'
p135
sI135
Vunprintable
p136
sI136
Vcredit
p137
sI137
Vmonogamous
p138
sI138
Vsymmetrical
p139
sI139
Vextrospective
p140
sI140
S'weakens'
p141
sI141
S'leaved'
p142
sI142
Vhydrophobic
p143
sI143
Venfranchise
p144
sI144
S'appropriately'
p145
sI145
Vsecure
p146
sI146
S'subtracts'
p147
sI147
S'mobility'
p148
sI148
Vdiscontinuous
p149
sI149
S'servicemen'
p150
sI150
Vinequitable
p151
sI151
S'lengthen'
p152
sI152
S'objectively'
p153
sI153
S'elaborates'
p154
sI154
S'patience'
p155
sI155
Vunretentive
p156
sI156
S'suffered'
p157
sI157
Vmoral
p158
sI158
S'romantically'
p159
sI159
S'linearly'
p160
sI160
S'disappearances'
p161
sI161
S'insecurity'
p162
sI162
Vunrighteousness
p163
sI163
S'negative'
p164
sI164
S'lessening'
p165
sI165
Vatonality
p166
sI166
Voverhead
p167
sI167
Vcalm
p168
sI168
S'leaky'
p169
sI169
S'type'
p170
sI170
S'unprofitable'
p171
sI171
S'females'
p172
sI172
Vholy
p173
sI173
S'relax'
p174
sI174
S'successful'
p175
sI175
Vdissimilitude
p176
sI176
S'demoted'
p177
sI177
S'imprecise'
p178
sI178
S'aware'
p179
sI179
S'deciduous'
p180
sI180
Vreversible
p181
sI181
Vadult
p182
sI182
Vunstrap
p183
sI183
Vlawlessly
p184
sI184
S'continual'
p185
sI185
Vhold
p186
sI186
Vincognizance
p187
sI187
S'slowest'
p188
sI188
S'harnessing'
p189
sI189
Vhostile
p190
sI190
S'abundance'
p191
sI191
Vflora
p192
sI192
S'locked'
p193
sI193
S'cheapest'
p194
sI194
S'refusing'
p195
sI195
Vendogenous
p196
sI196
Vincomparable
p197
sI197
Vpay_up
p198
sI198
S'sweeter'
p199
sI199
S'concepts'
p200
sI200
S'criticizing'
p201
sI201
S'elegantly'
p202
sI202
S'centralization'
p203
sI203
S'addictive'
p204
sI204
S'loosen'
p205
sI205
S'unilateral'
p206
sI206
S'joyous'
p207
sI207
S'unjust'
p208
sI208
Vstinginess
p209
sI209
Vassent
p210
sI210
S'heartless'
p211
sI211
Vpowerfulness
p212
sI212
S'fronting'
p213
sI213
Vnonfictional
p214
sI214
Vuntruthful
p215
sI215
S'validated'
p216
sI216
S'attract'
p217
sI217
S'looser'
p218
sI218
S'unforgettable'
p219
sI219
Valienable
p220
sI220
S'vanish'
p221
sI221
Vend
p222
sI222
S'illicit'
p223
sI223
S'enquiry'
p224
sI224
Vimprecision
p225
sI225
S'drying'
p226
sI226
S'grammatically'
p227
sI227
S'disappear'
p228
sI228
S'significance'
p229
sI229
Vanswer
p230
sI230
Vordinary
p231
sI231
S'ancestor'
p232
sI232
S'truthful'
p233
sI233
Vactivation
p234
sI234
Vclassify
p235
sI235
Vundesirable
p236
sI236
Vlegless
p237
sI237
S'prohibits'
p238
sI238
S'commencing'
p239
sI239
Vuselessness
p240
sI240
Vminority
p241
sI241
Vbeauty
p242
sI242
Vdisassemble
p243
sI243
Vunfitness
p244
sI244
Vinessential
p245
sI245
S'loyalty'
p246
sI246
S'outlawed'
p247
sI247
S'modest'
p248
sI248
Vungracefully
p249
sI249
Vcoarsely
p250
sI250
S'unscheduled'
p251
sI251
S'minimizes'
p252
sI252
Vunselfish
p253
sI253
Vantonym
p254
sI254
S'types'
p255
sI255
S'unfamiliarity'
p256
sI256
Vinactivity
p257
sI257
S'appropriateness'
p258
sI258
S'impatient'
p259
sI259
Veffective
p260
sI260
S'enriching'
p261
sI261
S'attracts'
p262
sI262
S'acknowledged'
p263
sI263
S'descends'
p264
sI264
S'fictional'
p265
sI265
S'capitalism'
p266
sI266
Vlike
p267
sI267
Vsoberness
p268
sI268
S'complexity'
p269
sI269
S'nascent'
p270
sI270
Vgreen
p271
sI271
Vultimate
p272
sI272
Venter
p273
sI273
S'uninsured'
p274
sI274
Vpreventive
p275
sI275
Vdemocratic
p276
sI276
Vdeterminate
p277
sI277
S'modesty'
p278
sI278
S'softened'
p279
sI279
S'prospective'
p280
sI280
S'subtracting'
p281
sI281
Vunworthiness
p282
sI282
Vupstream
p283
sI283
S'inconclusive'
p284
sI284
S'undetected'
p285
sI285
Vproportionate
p286
sI286
S'synonyms'
p287
sI287
S'fortify'
p288
sI288
Vresponsive
p289
sI289
S'rewarded'
p290
sI290
S'partisans'
p291
sI291
S'wrought'
p292
sI292
Vobscurity
p293
sI293
S'manageable'
p294
sI294
S'directional'
p295
sI295
Vpersonal
p296
sI296
Vsolid
p297
sI297
S'stimulated'
p298
sI298
S'blackened'
p299
sI299
Vbetter
p300
sI300
Vimplausibility
p301
sI301
S'narrowest'
p302
sI302
Vcomplex
p303
sI303
S'understated'
p304
sI304
Vapprove
p305
sI305
S'omitted'
p306
sI306
S'nobles'
p307
sI307
S'hidden'
p308
sI308
S'easier'
p309
sI309
Villegitimately
p310
sI310
Vmaximal
p311
sI311
Vuntwine
p312
sI312
Vaffected
p313
sI313
S'woken'
p314
sI314
S'enrich'
p315
sI315
Vsafe
p316
sI316
Vdifferentiated
p317
sI317
Vbreak
p318
sI318
S'emigrated'
p319
sI319
S'hiring'
p320
sI320
Vcolourless
p321
sI321
S'clogging'
p322
sI322
Villegitimacy
p323
sI323
S'multidimensional'
p324
sI324
S'undeveloped'
p325
sI325
S'saddened'
p326
sI326
S'unregistered'
p327
sI327
S'photosynthetic'
p328
sI328
S'brightness'
p329
sI329
S'reasonably'
p330
sI330
Vdemerit
p331
sI331
Vpoor_people
p332
sI332
Vproperness
p333
sI333
S'victories'
p334
sI334
Vvictory
p335
sI335
S'reasonable'
p336
sI336
S'fitness'
p337
sI337
S'went'
p338
sI338
S'loyalties'
p339
sI339
S'decreasing'
p340
sI340
Vnoncompliance
p341
sI341
S'associative'
p342
sI342
Vunwary
p343
sI343
S'preceded'
p344
sI344
S'financial'
p345
sI345
Vweightless
p346
sI346
Vinnocent
p347
sI347
S'parasites'
p348
sI348
S'depositing'
p349
sI349
S'precedes'
p350
sI350
S'forgot'
p351
sI351
S'ameliorate'
p352
sI352
S'dawn'
p353
sI353
S'comedies'
p354
sI354
Vhospitable
p355
sI355
Vnonexistence
p356
sI356
Vfalsity
p357
sI357
Vdepress
p358
sI358
S'unbound'
p359
sI359
Vrestricted
p360
sI360
S'useless'
p361
sI361
S'hooked'
p362
sI362
S'integrative'
p363
sI363
S'strangers'
p364
sI364
S'forte'
p365
sI365
Vmultiply
p366
sI366
S'debit'
p367
sI367
Vheavenly
p368
sI368
S'righteousness'
p369
sI369
S'disagreements'
p370
sI370
Vpainless
p371
sI371
Vlinear
p372
sI372
Vcolorless
p373
sI373
Vanalphabetic
p374
sI374
Vfree
p375
sI375
S'differing'
p376
sI376
Vsensory
p377
sI377
S'unconvinced'
p378
sI378
S'truthfully'
p379
sI379
S'homologous'
p380
sI380
S'corrects'
p381
sI381
S'enlightened'
p382
sI382
S'lineal'
p383
sI383
S'incorporates'
p384
sI384
S'inexpensive'
p385
sI385
S'correctness'
p386
sI386
S'tolerant'
p387
sI387
S'smokers'
p388
sI388
S'incorporated'
p389
sI389
Vineffectively
p390
sI390
S'loudness'
p391
sI391
S'loud'
p392
sI392
S'truthfulness'
p393
sI393
S'wronged'
p394
sI394
S'attractions'
p395
sI395
S'synonymous'
p396
sI396
Vlarboard
p397
sI397
Vlovable
p398
sI398
S'synthesize'
p399
sI399
Vinharmonious
p400
sI400
Vtolerably
p401
sI401
S'awoke'
p402
sI402
S'palpable'
p403
sI403
Vdisembark
p404
sI404
S'clarity'
p405
sI405
S'caloric'
p406
sI406
S'intelligibility'
p407
sI407
S'overt'
p408
sI408
Vservice
p409
sI409
S'attach'
p410
sI410
Vunrepeatable
p411
sI411
Vtimid
p412
sI412
S'taller'
p413
sI413
S'defaulting'
p414
sI414
S'indeterminate'
p415
sI415
S'equilibria'
p416
sI416
Vdownwardly
p417
sI417
Vcentripetal
p418
sI418
S'needed'
p419
sI419
S'confirming'
p420
sI420
Vlisted
p421
sI421
Vinconvenient
p422
sI422
S'unbroken'
p423
sI423
S'inflow'
p424
sI424
S'consented'
p425
sI425
Vurban
p426
sI426
Vdecentralize
p427
sI427
Vindiscreet
p428
sI428
S'asset'
p429
sI429
S'happily'
p430
sI430
S'esoteric'
p431
sI431
S'conspicuously'
p432
sI432
S'rejected'
p433
sI433
S'sync'
p434
sI434
Vunmindfulness
p435
sI435
S'repeatable'
p436
sI436
S'predictable'
p437
sI437
S'defaulted'
p438
sI438
S'wasted'
p439
sI439
S'requisite'
p440
sI440
Vnonpartisan
p441
sI441
Vdesynchronise
p442
sI442
S'finitely'
p443
sI443
S'recto'
p444
sI444
S'elegant'
p445
sI445
Vdivisible
p446
sI446
S'conforms'
p447
sI447
Voutlaw
p448
sI448
S'legalize'
p449
sI449
S'enabled'
p450
sI450
S'omnivorous'
p451
sI451
Varming
p452
sI452
Vidle
p453
sI453
Vfemaleness
p454
sI454
S'guilt'
p455
sI455
S'historical'
p456
sI456
Vjoy
p457
sI457
S'enables'
p458
sI458
S'powers'
p459
sI459
S'colonizing'
p460
sI460
S'colonized'
p461
sI461
S'freshness'
p462
sI462
S'unintended'
p463
sI463
S'persuasive'
p464
sI464
Vwillingness
p465
sI465
S'respecting'
p466
sI466
Vunchaste
p467
sI467
Vpessimism
p468
sI468
S'elevating'
p469
sI469
S'untrained'
p470
sI470
Vantagonistic
p471
sI471
S'enchanted'
p472
sI472
Vpessimist
p473
sI473
S'increment'
p474
sI474
S'rotors'
p475
sI475
S'unaffected'
p476
sI476
S'leafy'
p477
sI477
Vunfasten
p478
sI478
Vincoherent
p479
sI479
S'praising'
p480
sI480
S'quieter'
p481
sI481
Vsterile
p482
sI482
S'wholesome'
p483
sI483
S'convenient'
p484
sI484
Vlatter
p485
sI485
S'responsible'
p486
sI486
Vdevolution
p487
sI487
S'impotent'
p488
sI488
S'upholding'
p489
sI489
S'toothed'
p490
sI490
Vdisunify
p491
sI491
S'responsibly'
p492
sI492
S'effectiveness'
p493
sI493
Vimprudent
p494
sI494
Vshallow
p495
sI495
S'disembarking'
p496
sI496
S'withdraw'
p497
sI497
Vtimidity
p498
sI498
Vunmindful
p499
sI499
S'diminishing'
p500
sI500
Vaccurately
p501
sI501
S'simplify'
p502
sI502
S'immediacy'
p503
sI503
Vdisenfranchisement
p504
sI504
S'stood'
p505
sI505
S'hypertension'
p506
sI506
S'disarmed'
p507
sI507
Vunknowingly
p508
sI508
S'morality'
p509
sI509
S'constancy'
p510
sI510
S'mobilised'
p511
sI511
S'faceless'
p512
sI512
S'classicist'
p513
sI513
Vworsen
p514
sI514
Vorderly
p515
sI515
S'reputation'
p516
sI516
S'aunt'
p517
sI517
S'inaccuracies'
p518
sI518
S'left'
p519
sI519
S'purged'
p520
sI520
S'came'
p521
sI521
S'classicism'
p522
sI522
S'discontent'
p523
sI523
S'optionally'
p524
sI524
S'departing'
p525
sI525
S'reductions'
p526
sI526
Vqueen
p527
sI527
Vambiguously
p528
sI528
Vending
p529
sI529
S'undue'
p530
sI530
Vsoluble
p531
sI531
Vabstain
p532
sI532
S'climb'
p533
sI533
S'respectfully'
p534
sI534
S'diminish'
p535
sI535
S'falsehoods'
p536
sI536
Vnephew
p537
sI537
S'onside'
p538
sI538
Vattend_to
p539
sI539
S'sunsets'
p540
sI540
S'resisting'
p541
sI541
S'consciousness'
p542
sI542
Vstraight_line
p543
sI543
Vgrassless
p544
sI544
Vlayman
p545
sI545
S'elucidated'
p546
sI546
S'deepest'
p547
sI547
S'rich'
p548
sI548
Vintegrate
p549
sI549
Vsubhuman
p550
sI550
S'adequate'
p551
sI551
Vdullness
p552
sI552
S'nullified'
p553
sI553
S'borrowed'
p554
sI554
S'exports'
p555
sI555
Vabove
p556
sI556
Vcolorful
p557
sI557
S'criticizes'
p558
sI558
Vincongruity
p559
sI559
S'vowels'
p560
sI560
S'scalable'
p561
sI561
S'criticized'
p562
sI562
S'shutting'
p563
sI563
S'sequestration'
p564
sI564
Vborrower
p565
sI565
S'downtime'
p566
sI566
S'illegality'
p567
sI567
Vnasty
p568
sI568
Vunemotionally
p569
sI569
S'considerate'
p570
sI570
Vaestivate
p571
sI571
S'infrequent'
p572
sI572
S'textbooks'
p573
sI573
S'officially'
p574
sI574
Vegoism
p575
sI575
S'bad'
p576
sI576
Vsoftly
p577
sI577
Vunsensational
p578
sI578
S'analytical'
p579
sI579
S'sanctioning'
p580
sI580
S'freshwater'
p581
sI581
S'boarded'
p582
sI582
S'upwards'
p583
sI583
Vfragrant
p584
sI584
S'unworthy'
p585
sI585
S'questions'
p586
sI586
Vfair
p587
sI587
S'clarified'
p588
sI588
Vsensitivity
p589
sI589
S'resist'
p590
sI590
Vsubartesian
p591
sI591
Vnontraditional
p592
sI592
S'recoverable'
p593
sI593
Vfail
p594
sI594
Vsporadic
p595
sI595
Vnocturnal
p596
sI596
Vsofthearted
p597
sI597
Valkaline
p598
sI598
S'incorporating'
p599
sI599
S'clarifies'
p600
sI600
S'capacity'
p601
sI601
S'inappropriate'
p602
sI602
Vafloat
p603
sI603
Vconvex
p604
sI604
S'artificial'
p605
sI605
Vpaternal
p606
sI606
S'symmetric'
p607
sI607
S'opened'
p608
sI608
S'imperfections'
p609
sI609
Vunable
p610
sI610
Vuselessly
p611
sI611
S'cooperation'
p612
sI612
S'hopefully'
p613
sI613
S'conductive'
p614
sI614
S'drawn'
p615
sI615
Vhydrokinetic
p616
sI616
S'polygamous'
p617
sI617
Vlethargic
p618
sI618
S'indecisive'
p619
sI619
S'accord'
p620
sI620
Vloose
p621
sI621
Vdisagreeableness
p622
sI622
Vundependably
p623
sI623
Vunceremoniously
p624
sI624
S'packaged'
p625
sI625
S'weary'
p626
sI626
Vunfold
p627
sI627
Vcontamination
p628
sI628
Vdowngrade
p629
sI629
Vcarnivorous
p630
sI630
Vundependable
p631
sI631
Vuncreative
p632
sI632
S'downgraded'
p633
sI633
S'improve'
p634
sI634
Vfaced
p635
sI635
S'ingest'
p636
sI636
S'disorderly'
p637
sI637
Vnondevelopment
p638
sI638
Vagonist
p639
sI639
S'smartest'
p640
sI640
Vunregretful
p641
sI641
Vinsignificance
p642
sI642
S'uncertainty'
p643
sI643
S'disengage'
p644
sI644
Vplanned
p645
sI645
S'hated'
p646
sI646
Vrich_people
p647
sI647
S'disappears'
p648
sI648
S'con'
p649
sI649
S'widen'
p650
sI650
S'abbreviate'
p651
sI651
Venchant
p652
sI652
S'honouring'
p653
sI653
Virresponsible
p654
sI654
S'nonconformist'
p655
sI655
S'occupants'
p656
sI656
Vwhisper
p657
sI657
S'unprotected'
p658
sI658
S'illness'
p659
sI659
S'comprehension'
p660
sI660
S'applicability'
p661
sI661
S'wider'
p662
sI662
S'false'
p663
sI663
Vtrust
p664
sI664
S'gratitude'
p665
sI665
S'broadening'
p666
sI666
S'petty'
p667
sI667
S'immobile'
p668
sI668
Vunhappily
p669
sI669
S'puts'
p670
sI670
Vmobilization
p671
sI671
Vunion
p672
sI672
S'remained'
p673
sI673
S'criticised'
p674
sI674
S'erect'
p675
sI675
S'particulars'
p676
sI676
S'confident'
p677
sI677
Vmuch
p678
sI678
S'undefeated'
p679
sI679
Vinterest
p680
sI680
Vexpected
p681
sI681
S'parents'
p682
sI682
S'criticises'
p683
sI683
S'tallest'
p684
sI684
Vincompetent
p685
sI685
Vunsupportive
p686
sI686
Vdry
p687
sI687
S'deeper'
p688
sI688
S'mushroom'
p689
sI689
S'attacked'
p690
sI690
Vinattention
p691
sI691
Vimpermanence
p692
sI692
S'uncommon'
p693
sI693
S'comprehensible'
p694
sI694
S'coherent'
p695
sI695
S'invalidated'
p696
sI696
S'doubts'
p697
sI697
S'unrecorded'
p698
sI698
S'downplay'
p699
sI699
Vmaximally
p700
sI700
Vcensored
p701
sI701
Vdisarrange
p702
sI702
S'gracious'
p703
sI703
Vunpopular
p704
sI704
Vdeodorize
p705
sI705
S'publicly'
p706
sI706
S'affirm'
p707
sI707
Villiteracy
p708
sI708
S'unwillingness'
p709
sI709
S'lessen'
p710
sI710
S'gabled'
p711
sI711
S'assertive'
p712
sI712
S'employ'
p713
sI713
S'ugly'
p714
sI714
S'hates'
p715
sI715
Vbalance
p716
sI716
Vprecede
p717
sI717
S'launched'
p718
sI718
S'sundown'
p719
sI719
S'pessimistic'
p720
sI720
S'kindness'
p721
sI721
S'cons'
p722
sI722
Vconductor
p723
sI723
S'provocative'
p724
sI724
S'cyclones'
p725
sI725
S'best'
p726
sI726
Vrecuperate
p727
sI727
Vunicameral
p728
sI728
Vnoninheritable
p729
sI729
Vdefeated
p730
sI730
Vconditioned
p731
sI731
S'obeying'
p732
sI732
Vpenetrable
p733
sI733
Vexit
p734
sI734
Vdependableness
p735
sI735
S'exterior'
p736
sI736
Vunenterprising
p737
sI737
Vnoncompetitive
p738
sI738
Vobey
p739
sI739
S'trusted'
p740
sI740
S'overstated'
p741
sI741
S'confirmed'
p742
sI742
Vdescent
p743
sI743
S'enlightenment'
p744
sI744
Vundesirous
p745
sI745
Vdescend
p746
sI746
Vunfortunate
p747
sI747
Vincorrectly
p748
sI748
S'avoids'
p749
sI749
S'ingested'
p750
sI750
Vjoyless
p751
sI751
S'fairly'
p752
sI752
S'boiled'
p753
sI753
S'inadvertently'
p754
sI754
Vrotor
p755
sI755
S'progressed'
p756
sI756
Vpermit
p757
sI757
S'closings'
p758
sI758
S'monotonic'
p759
sI759
Vfuse
p760
sI760
Vrehabilitative
p761
sI761
S'selfless'
p762
sI762
Vseamed
p763
sI763
S'blamed'
p764
sI764
Vdeodourise
p765
sI765
Vweakly
p766
sI766
S'maximizing'
p767
sI767
Vunreactive
p768
sI768
S'auspicious'
p769
sI769
S'noblewoman'
p770
sI770
S'unconditionally'
p771
sI771
S'forceful'
p772
sI772
Vhumble
p773
sI773
S'uploading'
p774
sI774
S'smoker'
p775
sI775
Vapprobation
p776
sI776
Vmake_peace
p777
sI777
Vunadventurous
p778
sI778
Vincapable
p779
sI779
Vmother
p780
sI780
S'quantitative'
p781
sI781
Vuncivilly
p782
sI782
S'fittest'
p783
sI783
S'maxima'
p784
sI784
S'unified'
p785
sI785
Vbackground
p786
sI786
S'just'
p787
sI787
Vunemployment
p788
sI788
S'yea'
p789
sI789
S'upgrading'
p790
sI790
S'warmest'
p791
sI791
Vunfair
p792
sI792
Vinelasticity
p793
sI793
S'homogeneity'
p794
sI794
Vassigned
p795
sI795
S'unassigned'
p796
sI796
Vfullness
p797
sI797
S'uncooperative'
p798
sI798
S'breaching'
p799
sI799
S'followed'
p800
sI800
S'yes'
p801
sI801
S'converges'
p802
sI802
S'succeeding'
p803
sI803
Vdivide
p804
sI804
S'adding'
p805
sI805
S'enters'
p806
sI806
Vinfinitely
p807
sI807
S'similarities'
p808
sI808
S'ease'
p809
sI809
S'elaborated'
p810
sI810
S'insubordination'
p811
sI811
S'passive'
p812
sI812
S'criticise'
p813
sI813
Vshout
p814
sI814
Vinconclusively
p815
sI815
S'obedient'
p816
sI816
S'justices'
p817
sI817
S'requiring'
p818
sI818
Vdisapprove
p819
sI819
S'ascents'
p820
sI820
S'righteous'
p821
sI821
Vtolerable
p822
sI822
Vnonradioactive
p823
sI823
S'submissive'
p824
sI824
S'insensitive'
p825
sI825
S'boxed'
p826
sI826
S'involuntary'
p827
sI827
S'infield'
p828
sI828
Vdisagreement
p829
sI829
Vinaptitude
p830
sI830
S'visibly'
p831
sI831
S'unequivocally'
p832
sI832
Vpossibly
p833
sI833
S'discreet'
p834
sI834
S'descending'
p835
sI835
Vbirth
p836
sI836
Vunlikely
p837
sI837
S'sanitary'
p838
sI838
S'erected'
p839
sI839
S'advanced'
p840
sI840
Vdisadvantage
p841
sI841
S'sorrows'
p842
sI842
S'intertwined'
p843
sI843
S'visible'
p844
sI844
S'dishonest'
p845
sI845
Visotropy
p846
sI846
S'specific'
p847
sI847
Vinformative
p848
sI848
S'disillusioned'
p849
sI849
S'night'
p850
sI850
S'evolutions'
p851
sI851
Vsecurity
p852
sI852
Vaccuracy
p853
sI853
S'cooled'
p854
sI854
S'cowardice'
p855
sI855
Vright
p856
sI856
Vold
p857
sI857
Vtrained
p858
sI858
Vflatter
p859
sI859
S'successfully'
p860
sI860
Vdissuasion
p861
sI861
S'proportionally'
p862
sI862
S'unnecessary'
p863
sI863
Vborn
p864
sI864
Vnonmember
p865
sI865
Vinsincerely
p866
sI866
S'warring'
p867
sI867
Valtered
p868
sI868
Vanimate
p869
sI869
S'repelling'
p870
sI870
Vungrateful
p871
sI871
Vnobleman
p872
sI872
Vunadaptable
p873
sI873
S'participations'
p874
sI874
Vunambitious
p875
sI875
S'armed'
p876
sI876
S'opposite'
p877
sI877
S'daytime'
p878
sI878
S'creative'
p879
sI879
Vnonthermal
p880
sI880
S'disheartened'
p881
sI881
S'honoured'
p882
sI882
S'denied'
p883
sI883
Vintolerant
p884
sI884
Vconvict
p885
sI885
Vsubordination
p886
sI886
S'participation'
p887
sI887
S'palatable'
p888
sI888
S'specifically'
p889
sI889
S'algorithmic'
p890
sI890
S'memorably'
p891
sI891
S'minimization'
p892
sI892
Vdeflation
p893
sI893
S'elucidate'
p894
sI894
S'arbitrary'
p895
sI895
S'disappeared'
p896
sI896
S'attendance'
p897
sI897
Vsoftness
p898
sI898
S'losing'
p899
sI899
S'descendent'
p900
sI900
S'permitted'
p901
sI901
S'dead'
p902
sI902
S'wept'
p903
sI903
Vvagile
p904
sI904
S'inedible'
p905
sI905
S'conceal'
p906
sI906
S'citizens'
p907
sI907
S'accepts'
p908
sI908
Vtrustworthy
p909
sI909
S'undocumented'
p910
sI910
S'plus'
p911
sI911
S'complexities'
p912
sI912
S'disqualified'
p913
sI913
S'expertly'
p914
sI914
Vimpartiality
p915
sI915
Vpresence
p916
sI916
Vcivil
p917
sI917
S'delighted'
p918
sI918
S'naturalized'
p919
sI919
Vson
p920
sI920
Vdown
p921
sI921
S'thankful'
p922
sI922
S'beings'
p923
sI923
Vinapplicability
p924
sI924
Vcoastal
p925
sI925
S'dissenting'
p926
sI926
Veasy
p927
sI927
S'intermarriage'
p928
sI928
S'defendants'
p929
sI929
S'unambiguous'
p930
sI930
Vinfidelity
p931
sI931
S'rely'
p932
sI932
Vknowingly
p933
sI933
Vcompression
p934
sI934
Vweak_point
p935
sI935
S'indispensable'
p936
sI936
Vavailable
p937
sI937
S'unfocused'
p938
sI938
S'corporeal'
p939
sI939
Vtame
p940
sI940
S'stuck'
p941
sI941
S'smoothing'
p942
sI942
Vauthorized
p943
sI943
S'uncompressed'
p944
sI944
S'accords'
p945
sI945
Vuntie
p946
sI946
Vunpretentious
p947
sI947
Vwar
p948
sI948
S'purposely'
p949
sI949
S'happy'
p950
sI950
S'questionable'
p951
sI951
S'starve'
p952
sI952
Vhead
p953
sI953
S'gaseous'
p954
sI954
Vunfree
p955
sI955
Vimmorality
p956
sI956
S'understandably'
p957
sI957
Vsome
p958
sI958
S'differences'
p959
sI959
S'conclusively'
p960
sI960
Vunmanly
p961
sI961
Vfore
p962
sI962
Vundress
p963
sI963
S'disembarked'
p964
sI964
Vfailure
p965
sI965
Vheat
p966
sI966
Vuncle
p967
sI967
S'catalyst'
p968
sI968
Vsynonym
p969
sI969
Vtriclinic
p970
sI970
Vtrue
p971
sI971
Vhyperthyroidism
p972
sI972
Vcontinuance
p973
sI973
S'handily'
p974
sI974
Vnoncomprehensively
p975
sI975
S'veiled'
p976
sI976
S'emboldened'
p977
sI977
S'excommunicated'
p978
sI978
S'inside'
p979
sI979
S'myopia'
p980
sI980
S'attached'
p981
sI981
S'maximum'
p982
sI982
S'generosity'
p983
sI983
Vinsincere
p984
sI984
S'simplifying'
p985
sI985
Vcentralise
p986
sI986
Vemotional
p987
sI987
S'plaintiffs'
p988
sI988
S'occupiers'
p989
sI989
S'correspond'
p990
sI990
S'hurriedly'
p991
sI991
S'juvenile'
p992
sI992
S'strengthening'
p993
sI993
S'hotter'
p994
sI994
Vbelievably
p995
sI995
S'inclusive'
p996
sI996
Vcovert
p997
sI997
Vwetness
p998
sI998
S'specialities'
p999
sI999
S'decrypt'
p1000
sI1000
S'textbook'
p1001
sI1001
Vcultivated_plant
p1002
sI1002
Vsaltwater
p1003
sI1003
S'believable'
p1004
sI1004
S'uninterested'
p1005
sI1005
Vhumorlessly
p1006
sI1006
Vbore
p1007
sI1007
S'physical'
p1008
sI1008
S'willingly'
p1009
sI1009
Vfaithful
p1010
sI1010
Vdying
p1011
sI1011
Vno
p1012
sI1012
S'agreeing'
p1013
sI1013
Vinsane
p1014
sI1014
Vleafless
p1015
sI1015
S'handmade'
p1016
sI1016
S'vanishes'
p1017
sI1017
Vtopped
p1018
sI1018
Vgrammatical
p1019
sI1019
Vinterested
p1020
sI1020
Vmatriarchal
p1021
sI1021
S'ambitious'
p1022
sI1022
S'heterozygous'
p1023
sI1023
S'unwilling'
p1024
sI1024
S'irresistible'
p1025
sI1025
S'naive'
p1026
sI1026
S'unbalanced'
p1027
sI1027
S'evergreen'
p1028
sI1028
Vungracious
p1029
sI1029
S'permitting'
p1030
sI1030
S'brothers'
p1031
sI1031
S'tasteful'
p1032
sI1032
Vunromantically
p1033
sI1033
S'corrected'
p1034
sI1034
S'preceding'
p1035
sI1035
Vuninterestingly
p1036
sI1036
Vconvincing
p1037
sI1037
S'polite'
p1038
sI1038
Vpartiality
p1039
sI1039
Vnondriver
p1040
sI1040
Vacquaintance
p1041
sI1041
S'invested'
p1042
sI1042
S'exported'
p1043
sI1043
Vfruitlessly
p1044
sI1044
S'detained'
p1045
sI1045
S'unlocking'
p1046
sI1046
S'died'
p1047
sI1047
S'congested'
p1048
sI1048
S'fastened'
p1049
sI1049
S'faster'
p1050
sI1050
Vmale_parent
p1051
sI1051
S'necessitates'
p1052
sI1052
S'cohesion'
p1053
sI1053
Vunquotable
p1054
sI1054
S'loyal'
p1055
sI1055
Vwarm
p1056
sI1056
Vsmooth
p1057
sI1057
Vpush
p1058
sI1058
Vserious
p1059
sI1059
S'necessitated'
p1060
sI1060
S'backward'
p1061
sI1061
Vunprincipled
p1062
sI1062
Vdecelerate
p1063
sI1063
Vanglican
p1064
sI1064
S'concept'
p1065
sI1065
S'discreetly'
p1066
sI1066
Vchain
p1067
sI1067
Vlend_oneself
p1068
sI1068
Vindecently
p1069
sI1069
S'particular'
p1070
sI1070
Vinvariableness
p1071
sI1071
Vobviate
p1072
sI1072
S'known'
p1073
sI1073
Vdisrepute
p1074
sI1074
S'manages'
p1075
sI1075
S'grateful'
p1076
sI1076
S'functioned'
p1077
sI1077
Vremarkably
p1078
sI1078
Vabundant
p1079
sI1079
S'individualism'
p1080
sI1080
S'interlaced'
p1081
sI1081
Vconditionally
p1082
sI1082
Vunlikeness
p1083
sI1083
Vunprotective
p1084
sI1084
S'essentials'
p1085
sI1085
S'timbered'
p1086
sI1086
Vunpack
p1087
sI1087
Vfreelance
p1088
sI1088
Vshow
p1089
sI1089
S'father'
p1090
sI1090
S'disapproves'
p1091
sI1091
Vunpleasant
p1092
sI1092
S'dissatisfied'
p1093
sI1093
S'negativity'
p1094
sI1094
Vweakening
p1095
sI1095
S'bests'
p1096
sI1096
S'stabilizing'
p1097
sI1097
Vanalogous
p1098
sI1098
Vnonassociative
p1099
sI1099
Vunburden
p1100
sI1100
S'tenacious'
p1101
sI1101
S'downloading'
p1102
sI1102
Vupriver
p1103
sI1103
Vbroadly
p1104
sI1104
S'permissive'
p1105
sI1105
S'uploaded'
p1106
sI1106
Vcheap
p1107
sI1107
Vunalert
p1108
sI1108
S'unfamiliar'
p1109
sI1109
Vunfriendliness
p1110
sI1110
Vliability
p1111
sI1111
S'embark'
p1112
sI1112
Vuneventful
p1113
sI1113
S'fullest'
p1114
sI1114
S'pious'
p1115
sI1115
Vcool
p1116
sI1116
Vstiffen
p1117
sI1117
Vdissociate
p1118
sI1118
Vdisequilibrium
p1119
sI1119
S'impressive'
p1120
sI1120
Vlevel
p1121
sI1121
S'irreducible'
p1122
sI1122
S'anisotropy'
p1123
sI1123
S'uncontroversial'
p1124
sI1124
Vbrother
p1125
sI1125
Vlosings
p1126
sI1126
S'skewed'
p1127
sI1127
Vleave
p1128
sI1128
Vsolved
p1129
sI1129
Vinauspicious
p1130
sI1130
Vuntruthfulness
p1131
sI1131
Vformally
p1132
sI1132
S'disqualify'
p1133
sI1133
S'woven'
p1134
sI1134
Vunaware
p1135
sI1135
S'attracting'
p1136
sI1136
S'highs'
p1137
sI1137
Vfall_short_of
p1138
sI1138
Vbrave
p1139
sI1139
S'legalized'
p1140
sI1140
Vinsignificant
p1141
sI1141
Vmaximization
p1142
sI1142
S'measurable'
p1143
sI1143
Vagitate
p1144
sI1144
S'centrifugal'
p1145
sI1145
S'lengthened'
p1146
sI1146
S'widened'
p1147
sI1147
S'slowed'
p1148
sI1148
S'dried'
p1149
sI1149
Vscarcity
p1150
sI1150
Vpatient
p1151
sI1151
Vhyperopia
p1152
sI1152
Vdecriminalize
p1153
sI1153
Vcurse
p1154
sI1154
Vappear
p1155
sI1155
S'psychotropic'
p1156
sI1156
Vinfelicity
p1157
sI1157
S'foregoing'
p1158
sI1158
S'pleased'
p1159
sI1159
S'ineffectual'
p1160
sI1160
Vtheism
p1161
sI1161
S'unrestricted'
p1162
sI1162
S'commensurate'
p1163
sI1163
S'worked'
p1164
sI1164
S'unintentionally'
p1165
sI1165
Vdraftee
p1166
sI1166
Vcollateral
p1167
sI1167
Vunsure
p1168
sI1168
S'transparency'
p1169
sI1169
S'climbs'
p1170
sI1170
S'honour'
p1171
sI1171
Vinvoluntarily
p1172
sI1172
Vdisintegrative
p1173
sI1173
S'monotheistic'
p1174
sI1174
S'whiteness'
p1175
sI1175
Vdisclaim
p1176
sI1176
S'downloaded'
p1177
sI1177
S'femininity'
p1178
sI1178
Vslow
p1179
sI1179
Vingenuous
p1180
sI1180
S'decipher'
p1181
sI1181
S'tallying'
p1182
sI1182
S'constructive'
p1183
sI1183
Vchange
p1184
sI1184
Vmental_health
p1185
sI1185
S'boy'
p1186
sI1186
S'concurred'
p1187
sI1187
S'noticeable'
p1188
sI1188
Vimpatiently
p1189
sI1189
Vhealthy
p1190
sI1190
S'specialized'
p1191
sI1191
S'guilty'
p1192
sI1192
S'commonly'
p1193
sI1193
S'exiting'
p1194
sI1194
S'sharpening'
p1195
sI1195
Vineffective
p1196
sI1196
S'descended'
p1197
sI1197
Vboo
p1198
sI1198
S'usually'
p1199
sI1199
S'hospitality'
p1200
sI1200
S'noticeably'
p1201
sI1201
S'influx'
p1202
sI1202
S'negatives'
p1203
sI1203
Vvalidate
p1204
sI1204
Vuseful
p1205
sI1205
Vraise
p1206
sI1206
S'melodious'
p1207
sI1207
Vunargumentative
p1208
sI1208
Vmarked
p1209
sI1209
S'sincerely'
p1210
sI1210
S'flexibility'
p1211
sI1211
S'licensing'
p1212
sI1212
S'translational'
p1213
sI1213
Vrarely
p1214
sI1214
Vstingy
p1215
sI1215
S'unmarked'
p1216
sI1216
Vpositiveness
p1217
sI1217
Vwealth
p1218
sI1218
S'driest'
p1219
sI1219
S'perished'
p1220
sI1220
S'angry'
p1221
sI1221
S'uncritical'
p1222
sI1222
S'centrality'
p1223
sI1223
S'insides'
p1224
sI1224
Vsisterly
p1225
sI1225
S'upheld'
p1226
sI1226
Vopposed
p1227
sI1227
Vencode
p1228
sI1228
S'enriched'
p1229
sI1229
Vsharpen
p1230
sI1230
Vtheoretical
p1231
sI1231
S'wicked'
p1232
sI1232
Vnonconductive
p1233
sI1233
S'preserving'
p1234
sI1234
S'diurnal'
p1235
sI1235
S'acceptable'
p1236
sI1236
Vmaximise
p1237
sI1237
Vrefrain
p1238
sI1238
S'approving'
p1239
sI1239
S'cautious'
p1240
sI1240
S'degrade'
p1241
sI1241
Vacceptably
p1242
sI1242
Vvolunteer
p1243
sI1243
Vmisconception
p1244
sI1244
Vintemperance
p1245
sI1245
S'easiest'
p1246
sI1246
Vcall_option
p1247
sI1247
Vedible
p1248
sI1248
Vtrapezium
p1249
sI1249
S'defeats'
p1250
sI1250
S'fortified'
p1251
sI1251
Vmodified
p1252
sI1252
S'believes'
p1253
sI1253
S'hardest'
p1254
sI1254
S'harmonious'
p1255
sI1255
Vinferior
p1256
sI1256
S'believed'
p1257
sI1257
S'caution'
p1258
sI1258
S'fauna'
p1259
sI1259
Varrive
p1260
sI1260
S'thicknesses'
p1261
sI1261
S'unconditional'
p1262
sI1262
Vimpracticality
p1263
sI1263
S'admired'
p1264
sI1264
Vimpermeability
p1265
sI1265
Vtrade_edition
p1266
sI1266
S'grassy'
p1267
sI1267
S'expanding'
p1268
sI1268
Vnonaddictive
p1269
sI1269
Vromanticism
p1270
sI1270
Vinexperience
p1271
sI1271
Vdisbelieve
p1272
sI1272
Vflash-forward
p1273
sI1273
Vromanticist
p1274
sI1274
S'conciliatory'
p1275
sI1275
S'admires'
p1276
sI1276
Vexclude
p1277
sI1277
S'perigee'
p1278
sI1278
S'distinguishable'
p1279
sI1279
S'productive'
p1280
sI1280
S'septic'
p1281
sI1281
Vfortunately
p1282
sI1282
Vdecolonize
p1283
sI1283
Vmeager
p1284
sI1284
S'grosser'
p1285
sI1285
Vunrealistically
p1286
sI1286
S'advancing'
p1287
sI1287
Vpure
p1288
sI1288
S'irreverent'
p1289
sI1289
S'persuasion'
p1290
sI1290
S'divider'
p1291
sI1291
Veffortful
p1292
sI1292
S'escalate'
p1293
sI1293
Vstarless
p1294
sI1294
S'southern'
p1295
sI1295
S'unobtrusive'
p1296
sI1296
S'convincingly'
p1297
sI1297
Vrehabilitate
p1298
sI1298
Vnonalignment
p1299
sI1299
Vdestructive
p1300
sI1300
S'lacked'
p1301
sI1301
S'unbelievably'
p1302
sI1302
Vman
p1303
sI1303
S'temperate'
p1304
sI1304
S'supersonic'
p1305
sI1305
Vnatural
p1306
sI1306
S'dynamical'
p1307
sI1307
Vliquid
p1308
sI1308
Vdisloyalty
p1309
sI1309
S'futures'
p1310
sI1310
S'explicit'
p1311
sI1311
S'ordinarily'
p1312
sI1312
S'compressing'
p1313
sI1313
S'complaining'
p1314
sI1314
S'accelerated'
p1315
sI1315
S'reputations'
p1316
sI1316
Vpatronise
p1317
sI1317
S'invests'
p1318
sI1318
S'arrived'
p1319
sI1319
S'pulled'
p1320
sI1320
S'worsens'
p1321
sI1321
Vsuperscript
p1322
sI1322
Vexclusive
p1323
sI1323
S'innocuous'
p1324
sI1324
Vunfavorably
p1325
sI1325
S'unusually'
p1326
sI1326
Vnonpayment
p1327
sI1327
Vgradual
p1328
sI1328
Vpointed
p1329
sI1329
Vunacceptable
p1330
sI1330
Vstability
p1331
sI1331
S'ended'
p1332
sI1332
Vnon-involvement
p1333
sI1333
Vindecency
p1334
sI1334
Vcounterclockwise
p1335
sI1335
S'affirms'
p1336
sI1336
S'differs'
p1337
sI1337
Vcold
p1338
sI1338
S'equalling'
p1339
sI1339
Virresolute
p1340
sI1340
Vunconnectedness
p1341
sI1341
Vconjunct
p1342
sI1342
Vdisconnect
p1343
sI1343
Vincoherence
p1344
sI1344
S'curly'
p1345
sI1345
S'acknowledge'
p1346
sI1346
S'interesting'
p1347
sI1347
S'specifics'
p1348
sI1348
S'sexiest'
p1349
sI1349
Vhot
p1350
sI1350
S'decreases'
p1351
sI1351
S'attraction'
p1352
sI1352
S'immortality'
p1353
sI1353
S'lossless'
p1354
sI1354
S'lightened'
p1355
sI1355
S'decreased'
p1356
sI1356
Vdecertify
p1357
sI1357
S'inefficiency'
p1358
sI1358
S'modestly'
p1359
sI1359
S'within'
p1360
sI1360
S'unplanned'
p1361
sI1361
S'civilian'
p1362
sI1362
Vunhurriedly
p1363
sI1363
S'smarter'
p1364
sI1364
S'sweetened'
p1365
sI1365
S'insomnia'
p1366
sI1366
S'sarcastic'
p1367
sI1367
Vchromatic
p1368
sI1368
S'toxic'
p1369
sI1369
Vqualified
p1370
sI1370
Vunimpressive
p1371
sI1371
S'ingesting'
p1372
sI1372
S'arriving'
p1373
sI1373
Vunsusceptible
p1374
sI1374
S'balances'
p1375
sI1375
Vunpredictability
p1376
sI1376
S'matched'
p1377
sI1377
Vunfruitful
p1378
sI1378
Vsusceptibility
p1379
sI1379
S'shouted'
p1380
sI1380
S'equality'
p1381
sI1381
S'unauthorized'
p1382
sI1382
S'stabilize'
p1383
sI1383
S'respectable'
p1384
sI1384
S'suffixed'
p1385
sI1385
S'materialized'
p1386
sI1386
S'sensibilities'
p1387
sI1387
S'ceremonially'
p1388
sI1388
S'establishing'
p1389
sI1389
Vdysphoria
p1390
sI1390
S'synchronize'
p1391
sI1391
S'finely'
p1392
sI1392
S'careless'
p1393
sI1393
Voffshore
p1394
sI1394
S'heresies'
p1395
sI1395
Vwellness
p1396
sI1396
S'instability'
p1397
sI1397
S'entirely'
p1398
sI1398
S'repaired'
p1399
sI1399
S'seldom'
p1400
sI1400
S'weighted'
p1401
sI1401
Vunproductive
p1402
sI1402
S'blacked'
p1403
sI1403
S'growths'
p1404
sI1404
S'abnormal'
p1405
sI1405
Vimpolite
p1406
sI1406
Vnonfissionable
p1407
sI1407
S'balanced'
p1408
sI1408
Vunlock
p1409
sI1409
Vunlikelihood
p1410
sI1410
S'begun'
p1411
sI1411
Vgirl
p1412
sI1412
S'avoided'
p1413
sI1413
S'adequately'
p1414
sI1414
Vsunrise
p1415
sI1415
S'illnesses'
p1416
sI1416
Vliving
p1417
sI1417
S'concur'
p1418
sI1418
Vincongruousness
p1419
sI1419
Vamateurishly
p1420
sI1420
S'emigrate'
p1421
sI1421
Vfemale_child
p1422
sI1422
Vinadequacy
p1423
sI1423
Vunworldly
p1424
sI1424
Vincrease
p1425
sI1425
S'attracted'
p1426
sI1426
Vunserviceable
p1427
sI1427
S'weakened'
p1428
sI1428
Vinconspicuously
p1429
sI1429
Vplug_in
p1430
sI1430
Vprotected
p1431
sI1431
S'insecure'
p1432
sI1432
S'managed'
p1433
sI1433
S'unifying'
p1434
sI1434
S'superiors'
p1435
sI1435
S'attended'
p1436
sI1436
Vaperiodic
p1437
sI1437
S'disintegrated'
p1438
sI1438
S'uncertainties'
p1439
sI1439
S'incentives'
p1440
sI1440
Vpossibility
p1441
sI1441
S'minimized'
p1442
sI1442
Vdisrespect
p1443
sI1443
S'unfriendly'
p1444
sI1444
S'complicated'
p1445
sI1445
S'characteristically'
p1446
sI1446
Vpowerless
p1447
sI1447
Vunrespectable
p1448
sI1448
S'quits'
p1449
sI1449
Vinevitable
p1450
sI1450
S'forbids'
p1451
sI1451
Vadvance
p1452
sI1452
S'unsound'
p1453
sI1453
S'backside'
p1454
sI1454
S'wrong'
p1455
sI1455
Vhonest
p1456
sI1456
S'unpaid'
p1457
sI1457
S'impure'
p1458
sI1458
Vdisincarnate
p1459
sI1459
S'retreating'
p1460
sI1460
Vunholiness
p1461
sI1461
S'unborn'
p1462
sI1462
S'discontinued'
p1463
sI1463
Vfrequent
p1464
sI1464
S'simplifies'
p1465
sI1465
S'fetched'
p1466
sI1466
S'impossibly'
p1467
sI1467
S'symmetry'
p1468
sI1468
S'strengthened'
p1469
sI1469
S'distal'
p1470
sI1470
Vincongruous
p1471
sI1471
S'intoxicating'
p1472
sI1472
S'catalysts'
p1473
sI1473
S'nativity'
p1474
sI1474
Vdesynchronization
p1475
sI1475
S'multiplying'
p1476
sI1476
S'simplified'
p1477
sI1477
S'intrastate'
p1478
sI1478
Vdirectly
p1479
sI1479
S'generative'
p1480
sI1480
S'sounds'
p1481
sI1481
Vopen
p1482
sI1482
Vincompetently
p1483
sI1483
S'cheerfully'
p1484
sI1484
Vlittle
p1485
sI1485
Vnecessarily
p1486
sI1486
S'meaningful'
p1487
sI1487
S'yin'
p1488
sI1488
Vinsentient
p1489
sI1489
Vnon-engagement
p1490
sI1490
S'frivolous'
p1491
sI1491
S'legally'
p1492
sI1492
Vwhite
p1493
sI1493
S'unmarried'
p1494
sI1494
Vunprofitability
p1495
sI1495
S'inefficient'
p1496
sI1496
S'uninformed'
p1497
sI1497
S'asymmetric'
p1498
sI1498
S'continuous'
p1499
sI1499
Vrepatriate
p1500
sI1500
S'released'
p1501
sI1501
Vshort
p1502
sI1502
Vdeceleration
p1503
sI1503
Vheterologous
p1504
sI1504
S'specialists'
p1505
sI1505
Vjuiceless
p1506
sI1506
Vwide
p1507
sI1507
Vrightfulness
p1508
sI1508
Vanalyze
p1509
sI1509
S'impractical'
p1510
sI1510
Vunfortunately
p1511
sI1511
Vdislodge
p1512
sI1512
S'depressed'
p1513
sI1513
Vstructured
p1514
sI1514
S'require'
p1515
sI1515
S'folly'
p1516
sI1516
S'optimism'
p1517
sI1517
Vsquare_shooter
p1518
sI1518
Vunmelodious
p1519
sI1519
S'optimist'
p1520
sI1520
Vgeometrically
p1521
sI1521
Vextinguish
p1522
sI1522
S'respectability'
p1523
sI1523
S'deciphering'
p1524
sI1524
S'legalizing'
p1525
sI1525
S'nicer'
p1526
sI1526
S'mindfulness'
p1527
sI1527
Vpro
p1528
sI1528
S'underestimated'
p1529
sI1529
Vimmunocompetence
p1530
sI1530
S'sad'
p1531
sI1531
Vnonphotosynthetic
p1532
sI1532
Vunwooded
p1533
sI1533
Vvoiced
p1534
sI1534
S'abnormalities'
p1535
sI1535
S'insatiable'
p1536
sI1536
Voccupied
p1537
sI1537
S'dryness'
p1538
sI1538
S'exploratory'
p1539
sI1539
S'fashionable'
p1540
sI1540
Vefficient
p1541
sI1541
S'employers'
p1542
sI1542
Vdownwards
p1543
sI1543
Vunsatisfactorily
p1544
sI1544
S'purest'
p1545
sI1545
S'unlawfully'
p1546
sI1546
Vunsuitably
p1547
sI1547
S'online'
p1548
sI1548
Vobjective
p1549
sI1549
S'personalized'
p1550
sI1550
S'strengths'
p1551
sI1551
Vregistered
p1552
sI1552
S'flattered'
p1553
sI1553
Vbegin
p1554
sI1554
S'sure'
p1555
sI1555
S'straightening'
p1556
sI1556
Vnormal
p1557
sI1557
S'printable'
p1558
sI1558
S'knew'
p1559
sI1559
Vcompress
p1560
sI1560
S'clearer'
p1561
sI1561
Vpaid
p1562
sI1562
Vinsanity
p1563
sI1563
Vunkindness
p1564
sI1564
Vunattractively
p1565
sI1565
S'encodes'
p1566
sI1566
Vreducible
p1567
sI1567
S'upland'
p1568
sI1568
S'cleared'
p1569
sI1569
S'conspicuous'
p1570
sI1570
Vvoluntary
p1571
sI1571
S'acknowledges'
p1572
sI1572
S'radioactive'
p1573
sI1573
Vsurprising
p1574
sI1574
Vnonworker
p1575
sI1575
S'proud'
p1576
sI1576
Vgeneralist
p1577
sI1577
S'hungry'
p1578
sI1578
S'gracefully'
p1579
sI1579
Vsubjectively
p1580
sI1580
Vsunset
p1581
sI1581
S'cluttering'
p1582
sI1582
Vprofessional
p1583
sI1583
S'typically'
p1584
sI1584
S'satisfactorily'
p1585
sI1585
Vprecise
p1586
sI1586
S'permeable'
p1587
sI1587
Vinequity
p1588
sI1588
S'certification'
p1589
sI1589
S'synchronous'
p1590
sI1590
S'merit'
p1591
sI1591
S'elevate'
p1592
sI1592
S'bright'
p1593
sI1593
S'inconsistent'
p1594
sI1594
S'encoded'
p1595
sI1595
S'scarce'
p1596
sI1596
S'aggressive'
p1597
sI1597
S'inshore'
p1598
sI1598
Vupgrade
p1599
sI1599
Vunkind
p1600
sI1600
S'stormy'
p1601
sI1601
Vunprofitableness
p1602
sI1602
Vdisplease
p1603
sI1603
Vprecedented
p1604
sI1604
Vdull
p1605
sI1605
Vnonbeing
p1606
sI1606
S'explicitly'
p1607
sI1607
S'black'
p1608
sI1608
Vinvisible
p1609
sI1609
S'extracellular'
p1610
sI1610
S'awareness'
p1611
sI1611
S'centrally'
p1612
sI1612
S'unavailable'
p1613
sI1613
Vdissimilar
p1614
sI1614
S'uncles'
p1615
sI1615
S'liberators'
p1616
sI1616
S'incivility'
p1617
sI1617
Vlighten
p1618
sI1618
S'geocentric'
p1619
sI1619
S'broadest'
p1620
sI1620
S'uninvolved'
p1621
sI1621
S'prides'
p1622
sI1622
S'unimportant'
p1623
sI1623
S'infallible'
p1624
sI1624
S'unconsciously'
p1625
sI1625
S'import'
p1626
sI1626
S'symmetrically'
p1627
sI1627
S'heritable'
p1628
sI1628
S'unethical'
p1629
sI1629
S'clearest'
p1630
sI1630
Vimmodesty
p1631
sI1631
Vdisinherit
p1632
sI1632
S'inpatient'
p1633
sI1633
Vde-energise
p1634
sI1634
Vstoppable
p1635
sI1635
S'busiest'
p1636
sI1636
Vborrow
p1637
sI1637
Vstupid
p1638
sI1638
S'losers'
p1639
sI1639
S'inhumane'
p1640
sI1640
Vuncover
p1641
sI1641
Vdisparage
p1642
sI1642
S'prosecutions'
p1643
sI1643
Vhusband
p1644
sI1644
S'psychopathy'
p1645
sI1645
Vdeclared
p1646
sI1646
Vdestructible
p1647
sI1647
S'temperance'
p1648
sI1648
S'honesty'
p1649
sI1649
S'violated'
p1650
sI1650
Vmediacy
p1651
sI1651
Vincorporeal
p1652
sI1652
S'connections'
p1653
sI1653
Vnoncausative
p1654
sI1654
Vunfit
p1655
sI1655
S'asleep'
p1656
sI1656
S'unaltered'
p1657
sI1657
S'insoluble'
p1658
sI1658
S'violates'
p1659
sI1659
S'wettest'
p1660
sI1660
S'satisfying'
p1661
sI1661
S'inequalities'
p1662
sI1662
Vmaturity
p1663
sI1663
S'managing'
p1664
sI1664
S'subsequent'
p1665
sI1665
Vopening
p1666
sI1666
S'definite'
p1667
sI1667
S'inhibitors'
p1668
sI1668
Vatomistic
p1669
sI1669
S'unlocks'
p1670
sI1670
Voutside
p1671
sI1671
S'downriver'
p1672
sI1672
S'approvals'
p1673
sI1673
S'reproducible'
p1674
sI1674
Vnonhierarchical
p1675
sI1675
Vineloquently
p1676
sI1676
Vimpoliteness
p1677
sI1677
S'untrustworthy'
p1678
sI1678
Vsatiate
p1679
sI1679
S'multiplied'
p1680
sI1680
Vuninitiate
p1681
sI1681
S'parent'
p1682
sI1682
Vparental
p1683
sI1683
S'legitimacy'
p1684
sI1684
S'fearless'
p1685
sI1685
S'pluck'
p1686
sI1686
Vdisrespectfully
p1687
sI1687
Vconcentrate
p1688
sI1688
Vunsarcastic
p1689
sI1689
Vcome
p1690
sI1690
S'receded'
p1691
sI1691
S'busting'
p1692
sI1692
S'discernible'
p1693
sI1693
Vincapableness
p1694
sI1694
S'talented'
p1695
sI1695
S'gratefully'
p1696
sI1696
S'embarkation'
p1697
sI1697
S'many'
p1698
sI1698
S'correctly'
p1699
sI1699
Vquiet
p1700
sI1700
Vcontract
p1701
sI1701
S'enabling'
p1702
sI1702
S'verity'
p1703
sI1703
S'loudly'
p1704
sI1704
S'unflattering'
p1705
sI1705
Vnoncollapsible
p1706
sI1706
S'desist'
p1707
sI1707
S'minima'
p1708
sI1708
Vcontinuation
p1709
sI1709
Vunquiet
p1710
sI1710
S'inexplicable'
p1711
sI1711
S'satisfaction'
p1712
sI1712
S'losses'
p1713
sI1713
Vliberal
p1714
sI1714
Vextinct
p1715
sI1715
S'centralised'
p1716
sI1716
Vpostnatal
p1717
sI1717
Vlumper
p1718
sI1718
S'specializing'
p1719
sI1719
S'sensible'
p1720
sI1720
S'euphemisms'
p1721
sI1721
Vconsumptive
p1722
sI1722
Vunrenewable
p1723
sI1723
Vuncharacteristically
p1724
sI1724
S'skew'
p1725
sI1725
Vinformed
p1726
sI1726
S'escalated'
p1727
sI1727
S'immunodeficiency'
p1728
sI1728
S'relatedness'
p1729
sI1729
S'attaching'
p1730
sI1730
S'bequeathed'
p1731
sI1731
S'deposited'
p1732
sI1732
S'dangers'
p1733
sI1733
S'partisanship'
p1734
sI1734
S'linguistic'
p1735
sI1735
S'escalates'
p1736
sI1736
S'capably'
p1737
sI1737
S'sensibly'
p1738
sI1738
S'patriarchal'
p1739
sI1739
Veducated
p1740
sI1740
Vtasteless
p1741
sI1741
Vnoncrucial
p1742
sI1742
S'blessing'
p1743
sI1743
S'layperson'
p1744
sI1744
Vdisesteem
p1745
sI1745
Vdangerous
p1746
sI1746
Vpolytheism
p1747
sI1747
S'dramatic'
p1748
sI1748
Vwake
p1749
sI1749
Vexternal
p1750
sI1750
S'extant'
p1751
sI1751
S'meagre'
p1752
sI1752
Virrelevant
p1753
sI1753
S'former'
p1754
sI1754
S'sound'
p1755
sI1755
S'juveniles'
p1756
sI1756
S'diatonic'
p1757
sI1757
Vprofane
p1758
sI1758
Vinelegantly
p1759
sI1759
S'endlessly'
p1760
sI1760
Vtractable
p1761
sI1761
S'prominence'
p1762
sI1762
S'straighten'
p1763
sI1763
S'premature'
p1764
sI1764
Vapogee
p1765
sI1765
Vhereditarianism
p1766
sI1766
S'successes'
p1767
sI1767
S'slippery'
p1768
sI1768
S'unreported'
p1769
sI1769
S'prescriptive'
p1770
sI1770
S'awakened'
p1771
sI1771
S'coolest'
p1772
sI1772
Vunsatisfactory
p1773
sI1773
Vplanar
p1774
sI1774
Vnonlinguistic
p1775
sI1775
S'zenith'
p1776
sI1776
Vnonresidential
p1777
sI1777
S'matching'
p1778
sI1778
S'sincere'
p1779
sI1779
Vdepersonalize
p1780
sI1780
S'sleeping'
p1781
sI1781
Vmiddle
p1782
sI1782
S'relying'
p1783
sI1783
S'sudden'
p1784
sI1784
Vclutter
p1785
sI1785
Vdiabatic
p1786
sI1786
S'unreserved'
p1787
sI1787
S'decisively'
p1788
sI1788
Vworry
p1789
sI1789
S'different'
p1790
sI1790
S'resentful'
p1791
sI1791
S'shuts'
p1792
sI1792
Vunhelpfully
p1793
sI1793
S'granted'
p1794
sI1794
S'bumpy'
p1795
sI1795
S'aged'
p1796
sI1796
S'supra'
p1797
sI1797
S'unholy'
p1798
sI1798
S'enquiries'
p1799
sI1799
Vhipless
p1800
sI1800
Vweakness
p1801
sI1801
S'frequented'
p1802
sI1802
Vunplayful
p1803
sI1803
Vlicit
p1804
sI1804
Vunidimensional
p1805
sI1805
Vdishonorable
p1806
sI1806
S'noble'
p1807
sI1807
S'males'
p1808
sI1808
S'closest'
p1809
sI1809
S'sickness'
p1810
sI1810
Vapplaud
p1811
sI1811
S'downloads'
p1812
sI1812
S'births'
p1813
sI1813
Vdecompress
p1814
sI1814
S'disadvantaged'
p1815
sI1815
S'annulled'
p1816
sI1816
S'decently'
p1817
sI1817
S'detached'
p1818
sI1818
S'delicate'
p1819
sI1819
S'unqualified'
p1820
sI1820
S'unmanageable'
p1821
sI1821
Villicitly
p1822
sI1822
S'weep'
p1823
sI1823
S'totally'
p1824
sI1824
Vnontoxic
p1825
sI1825
S'renewable'
p1826
sI1826
S'enchanting'
p1827
sI1827
S'relies'
p1828
sI1828
S'hibernate'
p1829
sI1829
Vhighland
p1830
sI1830
Vundependability
p1831
sI1831
S'aunts'
p1832
sI1832
Vminimize
p1833
sI1833
S'purposeful'
p1834
sI1834
S'random'
p1835
sI1835
Vconstitutional
p1836
sI1836
S'aphelion'
p1837
sI1837
Vimmeasurable
p1838
sI1838
S'relied'
p1839
sI1839
S'inability'
p1840
sI1840
S'uninjured'
p1841
sI1841
S'synthesised'
p1842
sI1842
S'offensively'
p1843
sI1843
Vvariableness
p1844
sI1844
Vdisloyal
p1845
sI1845
Vdiffident
p1846
sI1846
Vcriminalise
p1847
sI1847
S'being'
p1848
sI1848
Vgenerally
p1849
sI1849
S'unconstitutional'
p1850
sI1850
S'exaggerating'
p1851
sI1851
Vvaluable
p1852
sI1852
Vloosening
p1853
sI1853
S'unofficial'
p1854
sI1854
S'violent'
p1855
sI1855
Vcompromising
p1856
sI1856
Vtactlessness
p1857
sI1857
Vproximal
p1858
sI1858
Vsufficiently
p1859
sI1859
Vunalike
p1860
sI1860
Vunenlightenment
p1861
sI1861
S'slims'
p1862
sI1862
Vdisreputable
p1863
sI1863
Vlongness
p1864
sI1864
Vheuristic
p1865
sI1865
S'alphabetical'
p1866
sI1866
S'death'
p1867
sI1867
S'legitimately'
p1868
sI1868
Vmonolingual
p1869
sI1869
S'futurity'
p1870
sI1870
S'trustworthiness'
p1871
sI1871
S'lender'
p1872
sI1872
S'porosity'
p1873
sI1873
Vdecompression
p1874
sI1874
Vverso
p1875
sI1875
S'heavier'
p1876
sI1876
S'joyful'
p1877
sI1877
S'disproportionate'
p1878
sI1878
Vuntruthfully
p1879
sI1879
S'outset'
p1880
sI1880
S'rises'
p1881
sI1881
S'disarmament'
p1882
sI1882
Vdiscontinue
p1883
sI1883
Vnatural_object
p1884
sI1884
S'admitting'
p1885
sI1885
S'unveil'
p1886
sI1886
S'early'
p1887
sI1887
S'inflation'
p1888
sI1888
S'politely'
p1889
sI1889
Vdisadvantageous
p1890
sI1890
S'boycotted'
p1891
sI1891
S'accepted'
p1892
sI1892
Vlady
p1893
sI1893
S'vanished'
p1894
sI1894
S'rear'
p1895
sI1895
S'sensational'
p1896
sI1896
Vacute
p1897
sI1897
Vconfine
p1898
sI1898
Vmilitarize
p1899
sI1899
S'stranger'
p1900
sI1900
S'unrepentant'
p1901
sI1901
S'clad'
p1902
sI1902
Vdiscomposure
p1903
sI1903
Vactive_voice
p1904
sI1904
S'sanity'
p1905
sI1905
S'caudal'
p1906
sI1906
S'superiority'
p1907
sI1907
S'laughing'
p1908
sI1908
S'always'
p1909
sI1909
Vunassertive
p1910
sI1910
S'voluntarily'
p1911
sI1911
S'passionate'
p1912
sI1912
S'ascends'
p1913
sI1913
Vdeconcentrate
p1914
sI1914
Vfunction
p1915
sI1915
S'undifferentiated'
p1916
sI1916
S'satisfactory'
p1917
sI1917
S'collapsible'
p1918
sI1918
S'climactic'
p1919
sI1919
S'worldly'
p1920
sI1920
Vuppercase
p1921
sI1921
Vconditional
p1922
sI1922
Vascend
p1923
sI1923
Vcathode
p1924
sI1924
Vcompetition
p1925
sI1925
Vmistrust
p1926
sI1926
Vunrestrictive
p1927
sI1927
S'privatization'
p1928
sI1928
S'laughed'
p1929
sI1929
Vspecified
p1930
sI1930
S'ascent'
p1931
sI1931
S'competences'
p1932
sI1932
S'civilly'
p1933
sI1933
Vbless
p1934
sI1934
S'insolvency'
p1935
sI1935
S'unlocked'
p1936
sI1936
S'freer'
p1937
sI1937
Vunbelief
p1938
sI1938
Vrecorded
p1939
sI1939
S'legal'
p1940
sI1940
Vconservative
p1941
sI1941
Vcritical
p1942
sI1942
Vdesynchronize
p1943
sI1943
S'richly'
p1944
sI1944
Vgladden
p1945
sI1945
Vdecentralise
p1946
sI1946
Vinhabited
p1947
sI1947
Vunluckily
p1948
sI1948
S'quitting'
p1949
sI1949
S'duller'
p1950
sI1950
S'freed'
p1951
sI1951
Vunsuccessfully
p1952
sI1952
Vunethically
p1953
sI1953
Vassembly
p1954
sI1954
S'buckling'
p1955
sI1955
S'power'
p1956
sI1956
S'relented'
p1957
sI1957
S'malfunctioning'
p1958
sI1958
S'indestructible'
p1959
sI1959
Vcommunicate
p1960
sI1960
Vunusual
p1961
sI1961
Vcarefulness
p1962
sI1962
S'loudest'
p1963
sI1963
S'disparaging'
p1964
sI1964
Vbroken
p1965
sI1965
S'ugliness'
p1966
sI1966
Vinnocence
p1967
sI1967
Vimmigrate
p1968
sI1968
S'patronising'
p1969
sI1969
S'unreal'
p1970
sI1970
S'on'
p1971
sI1971
S'unopposed'
p1972
sI1972
S'piety'
p1973
sI1973
S'capable'
p1974
sI1974
S'impervious'
p1975
sI1975
Vpractical
p1976
sI1976
S'escalating'
p1977
sI1977
Vsupervised
p1978
sI1978
Vstand
p1979
sI1979
S'conceals'
p1980
sI1980
Vact
p1981
sI1981
S'sadistic'
p1982
sI1982
S'unsympathetic'
p1983
sI1983
S'tributary'
p1984
sI1984
Vpenitent
p1985
sI1985
S'seedy'
p1986
sI1986
Vunconsciousness
p1987
sI1987
S'quietly'
p1988
sI1988
S'fertile'
p1989
sI1989
S'hypothermia'
p1990
sI1990
Vmalfunction
p1991
sI1991
S'whiter'
p1992
sI1992
S'skilled'
p1993
sI1993
S'indirectly'
p1994
sI1994
S'lifted'
p1995
sI1995
S'legged'
p1996
sI1996
Vfertility
p1997
sI1997
Vinattentiveness
p1998
sI1998
S'involvement'
p1999
sI1999
S'lively'
p2000
sI2000
S'heated'
p2001
sI2001
Vattachable
p2002
sI2002
Vtheoretically
p2003
sI2003
Vnonsmoker
p2004
sI2004
S'rewarding'
p2005
sI2005
S'unmodified'
p2006
sI2006
S'there'
p2007
sI2007
S'liberals'
p2008
sI2008
S'polyphony'
p2009
sI2009
Vdecode
p2010
sI2010
Vstart
p2011
sI2011
Vcompliant
p2012
sI2012
Vlow
p2013
sI2013
S'desirability'
p2014
sI2014
S'politeness'
p2015
sI2015
S'dependable'
p2016
sI2016
Vdecisive
p2017
sI2017
S'undamaged'
p2018
sI2018
S'forbade'
p2019
sI2019
Vdisreputability
p2020
sI2020
Vunreliably
p2021
sI2021
S'worsened'
p2022
sI2022
Vproportionately
p2023
sI2023
S'peaceful'
p2024
sI2024
S'delayed'
p2025
sI2025
Vsophisticated
p2026
sI2026
S'deterrence'
p2027
sI2027
Vwinter_solstice
p2028
sI2028
Vunreliable
p2029
sI2029
Vpromote
p2030
sI2030
S'irreversible'
p2031
sI2031
S'featuring'
p2032
sI2032
Vpull
p2033
sI2033
Vrush
p2034
sI2034
S'darken'
p2035
sI2035
S'arranged'
p2036
sI2036
S'hallows'
p2037
sI2037
S'wholesale'
p2038
sI2038
S'interiors'
p2039
sI2039
Vlawfully
p2040
sI2040
Vunwellness
p2041
sI2041
S'unveils'
p2042
sI2042
S'sadness'
p2043
sI2043
S'arranges'
p2044
sI2044
S'dirty'
p2045
sI2045
S'punitive'
p2046
sI2046
Vagree
p2047
sI2047
S'darker'
p2048
sI2048
S'strongly'
p2049
sI2049
S'peaking'
p2050
sI2050
Vlaugh
p2051
sI2051
S'diverges'
p2052
sI2052
Vomnidirectional
p2053
sI2053
S'fright'
p2054
sI2054
Vmultilaterally
p2055
sI2055
Vcertain
p2056
sI2056
S'downplayed'
p2057
sI2057
S'moved'
p2058
sI2058
Vdeep
p2059
sI2059
Vgeneral
p2060
sI2060
Vimpalpable
p2061
sI2061
Venable
p2062
sI2062
S'diverged'
p2063
sI2063
Vcause_to_sleep
p2064
sI2064
Vdenationalize
p2065
sI2065
S'corresponding'
p2066
sI2066
S'upmarket'
p2067
sI2067
S'principled'
p2068
sI2068
Vfill
p2069
sI2069
S'incorrect'
p2070
sI2070
S'selfish'
p2071
sI2071
Voffside
p2072
sI2072
S'completeness'
p2073
sI2073
S'brighter'
p2074
sI2074
S'inactivation'
p2075
sI2075
S'drivers'
p2076
sI2076
S'discontinuing'
p2077
sI2077
Vungratefully
p2078
sI2078
Vabolish
p2079
sI2079
S'productively'
p2080
sI2080
S'tight'
p2081
sI2081
Vnarrowing
p2082
sI2082
S'terminating'
p2083
sI2083
S'noblemen'
p2084
sI2084
Vobligatorily
p2085
sI2085
S'spatial'
p2086
sI2086
S'unneeded'
p2087
sI2087
Vincomprehensible
p2088
sI2088
S'dismayed'
p2089
sI2089
S'immunity'
p2090
sI2090
Vpoor
p2091
sI2091
S'attendances'
p2092
sI2092
S'ineligible'
p2093
sI2093
Vdemobilize
p2094
sI2094
Vforgettable
p2095
sI2095
S'includes'
p2096
sI2096
S'retardation'
p2097
sI2097
Vimportant
p2098
sI2098
Vunattractive
p2099
sI2099
S'included'
p2100
sI2100
S'equitable'
p2101
sI2101
S'prudent'
p2102
sI2102
Vunconstitutionally
p2103
sI2103
Vconclusive
p2104
sI2104
S'unpopularity'
p2105
sI2105
S'recapitulation'
p2106
sI2106
S'wife'
p2107
sI2107
S'invest'
p2108
sI2108
S'curve'
p2109
sI2109
Vfinished
p2110
sI2110
S'disagreeing'
p2111
sI2111
S'impossibility'
p2112
sI2112
S'proximate'
p2113
sI2113
S'haired'
p2114
sI2114
Vtense
p2115
sI2115
S'sensibility'
p2116
sI2116
S'all'
p2117
sI2117
S'liar'
p2118
sI2118
Vforget
p2119
sI2119
Vinexpedience
p2120
sI2120
S'crucial'
p2121
sI2121
S'forbidden'
p2122
sI2122
Vlack
p2123
sI2123
S'disassembled'
p2124
sI2124
S'splitting'
p2125
sI2125
S'unchanged'
p2126
sI2126
S'bravest'
p2127
sI2127
S'ceased'
p2128
sI2128
S'surgical'
p2129
sI2129
Vwinnings
p2130
sI2130
S'upholds'
p2131
sI2131
Vcooperative
p2132
sI2132
S'fairness'
p2133
sI2133
S'follow'
p2134
sI2134
Vinexpediency
p2135
sI2135
S'improperly'
p2136
sI2136
Vunmalleability
p2137
sI2137
Vsnail_mail
p2138
sI2138
Vcareful
p2139
sI2139
S'prefixed'
p2140
sI2140
S'weed'
p2141
sI2141
S'blackest'
p2142
sI2142
Vhyperthermia
p2143
sI2143
S'preserved'
p2144
sI2144
S'safety'
p2145
sI2145
Vheterogeneity
p2146
sI2146
S'defuse'
p2147
sI2147
S'immutable'
p2148
sI2148
S'degeneration'
p2149
sI2149
S'activities'
p2150
sI2150
S'woman'
p2151
sI2151
Vcitizen
p2152
sI2152
Vequivocal
p2153
sI2153
Vfar
p2154
sI2154
Vdisjoin
p2155
sI2155
S'plausibility'
p2156
sI2156
S'unregulated'
p2157
sI2157
Vintangible
p2158
sI2158
Vperihelion
p2159
sI2159
Vworst
p2160
sI2160
Vnoncyclic
p2161
sI2161
Vfall
p2162
sI2162
Vfall_asleep
p2163
sI2163
S'difference'
p2164
sI2164
S'concurring'
p2165
sI2165
S'disconnected'
p2166
sI2166
S'generalised'
p2167
sI2167
S'alien'
p2168
sI2168
Vantonymous
p2169
sI2169
S'mothers'
p2170
sI2170
Vingratitude
p2171
sI2171
S'aunty'
p2172
sI2172
S'mild'
p2173
sI2173
S'insufficiently'
p2174
sI2174
S'rationally'
p2175
sI2175
Vlarge
p2176
sI2176
S'asexual'
p2177
sI2177
S'sane'
p2178
sI2178
S'liars'
p2179
sI2179
Vsmall
p2180
sI2180
Vbiological
p2181
sI2181
S'abbreviated'
p2182
sI2182
Vunreliableness
p2183
sI2183
Vnonrandom
p2184
sI2184
Vappearance
p2185
sI2185
S'onshore'
p2186
sI2186
S'past'
p2187
sI2187
S'honourable'
p2188
sI2188
Vsurmountable
p2189
sI2189
S'inalienable'
p2190
sI2190
Vdisobedience
p2191
sI2191
S'attributable'
p2192
sI2192
S'aptly'
p2193
sI2193
S'quicken'
p2194
sI2194
Vunorthodoxy
p2195
sI2195
Vnonlinear
p2196
sI2196
S'imported'
p2197
sI2197
S'darkness'
p2198
sI2198
S'advantageous'
p2199
sI2199
Vimperceptible
p2200
sI2200
S'thickness'
p2201
sI2201
Vdesegregate
p2202
sI2202
Vimperceptibly
p2203
sI2203
S'fractional'
p2204
sI2204
Vfalsify
p2205
sI2205
Vcompact
p2206
sI2206
S'desegregation'
p2207
sI2207
S'sentient'
p2208
sI2208
S'eligibility'
p2209
sI2209
S'unprofessional'
p2210
sI2210
S'replaceable'
p2211
sI2211
Voverstatement
p2212
sI2212
S'favourably'
p2213
sI2213
S'favourable'
p2214
sI2214
Vinconsiderable
p2215
sI2215
S'uneven'
p2216
sI2216
S'compressed'
p2217
sI2217
S'civilians'
p2218
sI2218
S'eventful'
p2219
sI2219
Vbuy
p2220
sI2220
S'strong'
p2221
sI2221
Vtragedy
p2222
sI2222
S'occupant'
p2223
sI2223
Vbreakable
p2224
sI2224
S'admits'
p2225
sI2225
S'increments'
p2226
sI2226
S'unproven'
p2227
sI2227
Vconviction
p2228
sI2228
S'extraordinary'
p2229
sI2229
S'identifiable'
p2230
sI2230
S'compliance'
p2231
sI2231
S'allows'
p2232
sI2232
S'experience'
p2233
sI2233
Vlipless
p2234
sI2234
Vinfrequently
p2235
sI2235
S'periodic'
p2236
sI2236
S'acquittal'
p2237
sI2237
S'musically'
p2238
sI2238
Vpublished
p2239
sI2239
Vaction
p2240
sI2240
S'specialize'
p2241
sI2241
S'exited'
p2242
sI2242
S'sticking'
p2243
sI2243
Vinvalidate
p2244
sI2244
S'depart'
p2245
sI2245
Vretroactive
p2246
sI2246
Vunrecoverable
p2247
sI2247
Vcowardly
p2248
sI2248
Vimpiety
p2249
sI2249
S'emptied'
p2250
sI2250
Vimpolitic
p2251
sI2251
S'follower'
p2252
sI2252
S'indoors'
p2253
sI2253
Vcaptor
p2254
sI2254
S'aptitude'
p2255
sI2255
Vunpredictable
p2256
sI2256
S'inorganic'
p2257
sI2257
Vdecrement
p2258
sI2258
S'establish'
p2259
sI2259
Vinadequately
p2260
sI2260
Vconventional
p2261
sI2261
Vwanted
p2262
sI2262
S'composure'
p2263
sI2263
Vdistinct
p2264
sI2264
Vuptime
p2265
sI2265
Vdetermined
p2266
sI2266
Vdamaged
p2267
sI2267
Vunequally
p2268
sI2268
S'praised'
p2269
sI2269
S'unstressed'
p2270
sI2270
S'widens'
p2271
sI2271
Vpermanently
p2272
sI2272
S'unthinkable'
p2273
sI2273
S'ethically'
p2274
sI2274
Vmore
p2275
sI2275
S'underprivileged'
p2276
sI2276
S'delaying'
p2277
sI2277
S'commences'
p2278
sI2278
S'abridged'
p2279
sI2279
S'relevant'
p2280
sI2280
Vdematerialize
p2281
sI2281
S'constructs'
p2282
sI2282
Voutpatient
p2283
sI2283
S'captors'
p2284
sI2284
S'instrumental'
p2285
sI2285
S'unstable'
p2286
sI2286
S'commenced'
p2287
sI2287
S'unresolved'
p2288
sI2288
Vsurface
p2289
sI2289
S'regrettably'
p2290
sI2290
S'rudeness'
p2291
sI2291
Vnonviolent
p2292
sI2292
Vreparable
p2293
sI2293
Vglad
p2294
sI2294
S'respected'
p2295
sI2295
Vcarelessly
p2296
sI2296
S'unbearable'
p2297
sI2297
Vsleeveless
p2298
sI2298
S'specializes'
p2299
sI2299
S'coalition'
p2300
sI2300
S'remain'
p2301
sI2301
S'unwritten'
p2302
sI2302
S'fronted'
p2303
sI2303
Vclergy
p2304
sI2304
Vunfairness
p2305
sI2305
S'playable'
p2306
sI2306
Vmale
p2307
sI2307
S'spontaneous'
p2308
sI2308
S'complain'
p2309
sI2309
Vunhook
p2310
sI2310
Vbeautiful
p2311
sI2311
S'stubborn'
p2312
sI2312
S'needing'
p2313
sI2313
S'antagonists'
p2314
sI2314
S'synchronized'
p2315
sI2315
S'neglected'
p2316
sI2316
Vaccept
p2317
sI2317
Vboycott
p2318
sI2318
S'pushed'
p2319
sI2319
Vminimum
p2320
sI2320
Vimitation
p2321
sI2321
S'purchased'
p2322
sI2322
Vnonintervention
p2323
sI2323
S'disliked'
p2324
sI2324
S'concealed'
p2325
sI2325
S'narrowly'
p2326
sI2326
Vcephalic
p2327
sI2327
S'comfortable'
p2328
sI2328
Vadvantage
p2329
sI2329
Vawkward
p2330
sI2330
S'comfort'
p2331
sI2331
S'stayed'
p2332
sI2332
Vunsystematically
p2333
sI2333
S'unlucky'
p2334
sI2334
S'sacred'
p2335
sI2335
Vreject
p2336
sI2336
S'activator'
p2337
sI2337
Vmutable
p2338
sI2338
S'hopeless'
p2339
sI2339
S'acknowledging'
p2340
sI2340
Vsimplicity
p2341
sI2341
Vintended
p2342
sI2342
S'inflationary'
p2343
sI2343
S'disgraced'
p2344
sI2344
S'expenditures'
p2345
sI2345
Vunashamed
p2346
sI2346
S'triumphs'
p2347
sI2347
Vregress
p2348
sI2348
S'interior'
p2349
sI2349
S'disable'
p2350
sI2350
S'lighting'
p2351
sI2351
S'unsurprising'
p2352
sI2352
S'blacker'
p2353
sI2353
S'absences'
p2354
sI2354
Vabsolve
p2355
sI2355
Vrefuse
p2356
sI2356
Vcriticize
p2357
sI2357
S'inbred'
p2358
sI2358
Vimmobility
p2359
sI2359
Vcourteously
p2360
sI2360
Vnonindulgent
p2361
sI2361
S'artful'
p2362
sI2362
Vdispensable
p2363
sI2363
Vunresentful
p2364
sI2364
S'pleasure'
p2365
sI2365
Vimpermissible
p2366
sI2366
S'exclusions'
p2367
sI2367
S'euphemism'
p2368
sI2368
Vanticyclone
p2369
sI2369
S'anonymous'
p2370
sI2370
S'uncensored'
p2371
sI2371
S'disables'
p2372
sI2372
Vdysgenics
p2373
sI2373
Vdeveloped
p2374
sI2374
S'oblique'
p2375
sI2375
Vorganize
p2376
sI2376
S'helpfully'
p2377
sI2377
S'existence'
p2378
sI2378
S'concentric'
p2379
sI2379
S'suffer'
p2380
sI2380
S'unhealthy'
p2381
sI2381
S'disagreed'
p2382
sI2382
S'laced'
p2383
sI2383
S'rapidly'
p2384
sI2384
S'susceptible'
p2385
sI2385
Vinward
p2386
sI2386
Vdeniable
p2387
sI2387
S'lipped'
p2388
sI2388
S'fruitful'
p2389
sI2389
Vlate
p2390
sI2390
Vharmless
p2391
sI2391
Vdetected
p2392
sI2392
S'disagrees'
p2393
sI2393
S'differed'
p2394
sI2394
S'conformist'
p2395
sI2395
S'speedily'
p2396
sI2396
S'demotion'
p2397
sI2397
S'materialize'
p2398
sI2398
Vgood
p2399
sI2399
Vdisrespectful
p2400
sI2400
S'secondarily'
p2401
sI2401
S'reassure'
p2402
sI2402
Vinsensibility
p2403
sI2403
S'prenatal'
p2404
sI2404
S'obeyed'
p2405
sI2405
S'strapping'
p2406
sI2406
S'unacceptably'
p2407
sI2407
S'sessile'
p2408
sI2408
S'permissible'
p2409
sI2409
S'attending'
p2410
sI2410
Vdetach
p2411
sI2411
S'adventurous'
p2412
sI2412
S'respectful'
p2413
sI2413
S'reassured'
p2414
sI2414
Vuncomplimentary
p2415
sI2415
S'likeness'
p2416
sI2416
S'wishful'
p2417
sI2417
S'pregnant'
p2418
sI2418
S'nephews'
p2419
sI2419
Virremovable
p2420
sI2420
S'featured'
p2421
sI2421
Vrefresh
p2422
sI2422
S'capability'
p2423
sI2423
Vinequality
p2424
sI2424
S'stopped'
p2425
sI2425
S'uploads'
p2426
sI2426
S'reassures'
p2427
sI2427
S'aligns'
p2428
sI2428
S'intolerable'
p2429
sI2429
S'disorganized'
p2430
sI2430
Vincoordination
p2431
sI2431
S'disappearing'
p2432
sI2432
Vheavy
p2433
sI2433
Vweigh_down
p2434
sI2434
Vupstairs
p2435
sI2435
S'colder'
p2436
sI2436
Vhard
p2437
sI2437
S'outlawing'
p2438
sI2438
S'accidentally'
p2439
sI2439
S'irreconcilable'
p2440
sI2440
S'connect'
p2441
sI2441
Vunharness
p2442
sI2442
Vorient
p2443
sI2443
Vnonmonotonic
p2444
sI2444
Vreverent
p2445
sI2445
S'accelerates'
p2446
sI2446
Vcreditor
p2447
sI2447
S'blacks'
p2448
sI2448
S'sparingly'
p2449
sI2449
S'unnatural'
p2450
sI2450
S'disadvantages'
p2451
sI2451
S'prosecution'
p2452
sI2452
S'reverend'
p2453
sI2453
S'safeties'
p2454
sI2454
Vmachine-made
p2455
sI2455
S'health'
p2456
sI2456
S'inactivated'
p2457
sI2457
S'convergent'
p2458
sI2458
S'cyclone'
p2459
sI2459
S'aligned'
p2460
sI2460
Vinduced
p2461
sI2461
S'igniting'
p2462
sI2462
S'attentions'
p2463
sI2463
Vunbuckle
p2464
sI2464
S'expansive'
p2465
sI2465
Vunidentifiable
p2466
sI2466
S'boldness'
p2467
sI2467
S'belief'
p2468
sI2468
S'risen'
p2469
sI2469
S'offsets'
p2470
sI2470
S'driver'
p2471
sI2471
S'enforcing'
p2472
sI2472
Vasymmetrical
p2473
sI2473
S'lesser'
p2474
sI2474
S'pleasant'
p2475
sI2475
Vdifficulty
p2476
sI2476
Vqualify
p2477
sI2477
S'brightest'
p2478
sI2478
S'members'
p2479
sI2479
S'bidirectional'
p2480
sI2480
S'plurals'
p2481
sI2481
S'colonised'
p2482
sI2482
S'beginning'
p2483
sI2483
S'decoded'
p2484
sI2484
S'uplands'
p2485
sI2485
Vuninfluential
p2486
sI2486
S'misogyny'
p2487
sI2487
S'friendliness'
p2488
sI2488
S'perceptible'
p2489
sI2489
S'omit'
p2490
sI2490
Vinappropriately
p2491
sI2491
Vdomineering
p2492
sI2492
S'predate'
p2493
sI2493
S'tributaries'
p2494
sI2494
Vundependableness
p2495
sI2495
Vdisincentive
p2496
sI2496
S'omits'
p2497
sI2497
S'uncontrolled'
p2498
sI2498
S'botany'
p2499
sI2499
Vvowel
p2500
sI2500
Vfull-term
p2501
sI2501
S'relate'
p2502
sI2502
S'egalitarian'
p2503
sI2503
Vwelcome
p2504
sI2504
S'linking'
p2505
sI2505
S'unaccompanied'
p2506
sI2506
S'sisters'
p2507
sI2507
S'unexpected'
p2508
sI2508
S'effortless'
p2509
sI2509
S'slower'
p2510
sI2510
S'distributive'
p2511
sI2511
S'euphoria'
p2512
sI2512
Vmiss
p2513
sI2513
S'invariance'
p2514
sI2514
S'hallowed'
p2515
sI2515
Vdiffer
p2516
sI2516
S'breathless'
p2517
sI2517
S'indulgent'
p2518
sI2518
Vunclog
p2519
sI2519
S'interwoven'
p2520
sI2520
Vprokaryote
p2521
sI2521
S'tougher'
p2522
sI2522
S'moderately'
p2523
sI2523
S'obedience'
p2524
sI2524
S'construct'
p2525
sI2525
S'sweetest'
p2526
sI2526
S'obligatory'
p2527
sI2527
Vclear_up
p2528
sI2528
Vexpand
p2529
sI2529
S'complicates'
p2530
sI2530
Vinvisibility
p2531
sI2531
Vunweave
p2532
sI2532
S'smoothed'
p2533
sI2533
S'merciless'
p2534
sI2534
S'motility'
p2535
sI2535
S'justly'
p2536
sI2536
Vsynthetic
p2537
sI2537
S'dethroned'
p2538
sI2538
Vuninstructive
p2539
sI2539
S'defused'
p2540
sI2540
S'required'
p2541
sI2541
S'basal'
p2542
sI2542
Vappreciation
p2543
sI2543
Vindecisively
p2544
sI2544
Vfavorable
p2545
sI2545
S'taxable'
p2546
sI2546
S'consonant'
p2547
sI2547
Vstifle
p2548
sI2548
Vheedlessness
p2549
sI2549
S'uncut'
p2550
sI2550
S'undefined'
p2551
sI2551
S'peaked'
p2552
sI2552
S'inland'
p2553
sI2553
S'critically'
p2554
sI2554
Vcyclic
p2555
sI2555
Vprevent
p2556
sI2556
S'impersonal'
p2557
sI2557
Vpurposeless
p2558
sI2558
Vlegato
p2559
sI2559
Vutopia
p2560
sI2560
Vobfuscate
p2561
sI2561
Vsedate
p2562
sI2562
Voutdoors
p2563
sI2563
S'elaborate'
p2564
sI2564
Vundock
p2565
sI2565
S'tonality'
p2566
sI2566
S'remembers'
p2567
sI2567
S'interactive'
p2568
sI2568
Vpostdate
p2569
sI2569
Vinappropriateness
p2570
sI2570
Vstrengthen
p2571
sI2571
S'imports'
p2572
sI2572
S'heaviest'
p2573
sI2573
Voverstate
p2574
sI2574
S'juicy'
p2575
sI2575
Vaffirmative
p2576
sI2576
S'alike'
p2577
sI2577
S'cleaned'
p2578
sI2578
Vunafraid
p2579
sI2579
S'confirms'
p2580
sI2580
Vunaggressive
p2581
sI2581
S'vulnerable'
p2582
sI2582
Vsell
p2583
sI2583
Vlie
p2584
sI2584
Vhopelessly
p2585
sI2585
Vuntrustworthiness
p2586
sI2586
S'permanence'
p2587
sI2587
S'imitations'
p2588
sI2588
S'conforming'
p2589
sI2589
S'majority'
p2590
sI2590
S'empirically'
p2591
sI2591
S'internal'
p2592
sI2592
Vundramatic
p2593
sI2593
S'applauded'
p2594
sI2594
Vfrail
p2595
sI2595
S'aggravating'
p2596
sI2596
Vinvulnerable
p2597
sI2597
Vindiscernible
p2598
sI2598
S'extensible'
p2599
sI2599
Vseedless
p2600
sI2600
S'added'
p2601
sI2601
S'approves'
p2602
sI2602
S'multilingual'
p2603
sI2603
S'equipping'
p2604
sI2604
S'exempted'
p2605
sI2605
S'most'
p2606
sI2606
S'hired'
p2607
sI2607
S'experiences'
p2608
sI2608
S'significant'
p2609
sI2609
Vexplicable
p2610
sI2610
S'accepting'
p2611
sI2611
S'conventionally'
p2612
sI2612
Vwisdom
p2613
sI2613
S'gregarious'
p2614
sI2614
Vunremarkably
p2615
sI2615
Vbe_full
p2616
sI2616
Vunrespectability
p2617
sI2617
S'unequal'
p2618
sI2618
S'unsupervised'
p2619
sI2619
Vmobile
p2620
sI2620
Vclear
p2621
sI2621
Vpopularity
p2622
sI2622
S'luckily'
p2623
sI2623
S'traditional'
p2624
sI2624
S'nationalized'
p2625
sI2625
Vunexpansive
p2626
sI2626
Vorganise
p2627
sI2627
S'intelligently'
p2628
sI2628
Vclean
p2629
sI2629
Vnarrow
p2630
sI2630
S'personalised'
p2631
sI2631
S'attacking'
p2632
sI2632
Vdrunkenness
p2633
sI2633
Vundesirability
p2634
sI2634
Vunimportance
p2635
sI2635
Vnon-invertible
p2636
sI2636
S'hipped'
p2637
sI2637
S'criticising'
p2638
sI2638
S'degrades'
p2639
sI2639
S'converge'
p2640
sI2640
Vnoncitizen
p2641
sI2641
S'inflexible'
p2642
sI2642
S'disapproved'
p2643
sI2643
S'malignant'
p2644
sI2644
S'acceptability'
p2645
sI2645
Vmultilateral
p2646
sI2646
S'immaturity'
p2647
sI2647
S'degraded'
p2648
sI2648
Vfine
p2649
sI2649
Vnonrepresentational
p2650
sI2650
S'exteriors'
p2651
sI2651
S'awakens'
p2652
sI2652
Vnorthern
p2653
sI2653
Vspineless
p2654
sI2654
S'justice'
p2655
sI2655
S'unrealistic'
p2656
sI2656
Vherbivorous
p2657
sI2657
Vunhappy
p2658
sI2658
Vdestabilize
p2659
sI2659
S'impenetrable'
p2660
sI2660
Vunjustly
p2661
sI2661
S'aground'
p2662
sI2662
S'removable'
p2663
sI2663
S'incapacitating'
p2664
sI2664
S'hardened'
p2665
sI2665
S'merged'
p2666
sI2666
Vunfaceted
p2667
sI2667
S'clarifying'
p2668
sI2668
S'intractable'
p2669
sI2669
S'uncontested'
p2670
sI2670
S'associating'
p2671
sI2671
S'king'
p2672
sI2672
S'secular'
p2673
sI2673
Vexpress
p2674
sI2674
Vunconventionally
p2675
sI2675
S'cheaper'
p2676
sI2676
Vcourage
p2677
sI2677
S'hid'
p2678
sI2678
S'fastest'
p2679
sI2679
Vdocile
p2680
sI2680
S'intensify'
p2681
sI2681
S'emails'
p2682
sI2682
Vfallible
p2683
sI2683
S'beautifully'
p2684
sI2684
Vprogressive
p2685
sI2685
Vnoncrystalline
p2686
sI2686
Vcry
p2687
sI2687
Vdiverge
p2688
sI2688
S'surrendering'
p2689
sI2689
S'reputable'
p2690
sI2690
S'filled'
p2691
sI2691
S'activity'
p2692
sI2692
Vanovulation
p2693
sI2693
Vconsciously
p2694
sI2694
Vhairy
p2695
sI2695
S'condemnation'
p2696
sI2696
S'extensor'
p2697
sI2697
S'disapproving'
p2698
sI2698
S'assemble'
p2699
sI2699
Vintemperate
p2700
sI2700
S'unpublished'
p2701
sI2701
Voutboard
p2702
sI2702
Vpotent
p2703
sI2703
Vplausible
p2704
sI2704
Virregularly
p2705
sI2705
Vunsanitary
p2706
sI2706
S'manly'
p2707
sI2707
Vvocal
p2708
sI2708
S'surrendered'
p2709
sI2709
Vgeneric_wine
p2710
sI2710
Vtender
p2711
sI2711
Vuntimbered
p2712
sI2712
S'changeable'
p2713
sI2713
S'theoretic'
p2714
sI2714
S'embarking'
p2715
sI2715
S'locals'
p2716
sI2716
Vpotential
p2717
sI2717
Vprobable
p2718
sI2718
S'plasticity'
p2719
sI2719
S'resolute'
p2720
sI2720
Vpositivity
p2721
sI2721
Vplease
p2722
sI2722
S'precocious'
p2723
sI2723
S'rejecting'
p2724
sI2724
S'dissuaded'
p2725
sI2725
S'degrading'
p2726
sI2726
S'dismantling'
p2727
sI2727
Vincaution
p2728
sI2728
S'falsehood'
p2729
sI2729
S'vascular'
p2730
sI2730
S'internationalism'
p2731
sI2731
S'subscript'
p2732
sI2732
S'corruption'
p2733
sI2733
S'consonants'
p2734
sI2734
S'milder'
p2735
sI2735
S'strangest'
p2736
sI2736
Vinvisibly
p2737
sI2737
Vahistorical
p2738
sI2738
S'fetching'
p2739
sI2739
S'sold'
p2740
sI2740
S'attention'
p2741
sI2741
Vdisallow
p2742
sI2742
Vincommensurate
p2743
sI2743
Vstyleless
p2744
sI2744
S'succeed'
p2745
sI2745
Vtearless
p2746
sI2746
S'fame'
p2747
sI2747
Vstale
p2748
sI2748
Vperfection
p2749
sI2749
Vunapologetic
p2750
sI2750
S'tangible'
p2751
sI2751
S'widest'
p2752
sI2752
S'influential'
p2753
sI2753
S'carelessness'
p2754
sI2754
S'foreign'
p2755
sI2755
Vquadruped
p2756
sI2756
Vsensitive
p2757
sI2757
S'connection'
p2758
sI2758
S'improves'
p2759
sI2759
S'forgotten'
p2760
sI2760
Vfocused
p2761
sI2761
S'inclusions'
p2762
sI2762
S'superhuman'
p2763
sI2763
Vwhole
p2764
sI2764
Vimmotility
p2765
sI2765
Vunmusically
p2766
sI2766
Vthinkable
p2767
sI2767
Vdysphemism
p2768
sI2768
S'elaborating'
p2769
sI2769
S'expendable'
p2770
sI2770
Vheaded
p2771
sI2771
Vunsoundness
p2772
sI2772
S'acted'
p2773
sI2773
S'uncivil'
p2774
sI2774
S'corresponds'
p2775
sI2775
Vinflexibility
p2776
sI2776
Vcenogenesis
p2777
sI2777
Vregulated
p2778
sI2778
Vunsuccessful
p2779
sI2779
Vimprovement
p2780
sI2780
Vdishonor
p2781
sI2781
S'expensive'
p2782
sI2782
S'patiently'
p2783
sI2783
Vunprovocative
p2784
sI2784
S'worthless'
p2785
sI2785
S'substantiated'
p2786
sI2786
S'inadmissible'
p2787
sI2787
S'incomes'
p2788
sI2788
S'scented'
p2789
sI2789
Vintracellular
p2790
sI2790
S'creativity'
p2791
sI2791
Vdue
p2792
sI2792
S'patronised'
p2793
sI2793
Vuncritically
p2794
sI2794
S'convicted'
p2795
sI2795
Vunpatriotic
p2796
sI2796
S'faithfully'
p2797
sI2797
S'coarse'
p2798
sI2798
S'anisotropic'
p2799
sI2799
S'preventable'
p2800
sI2800
S'intrusive'
p2801
sI2801
Vempty
p2802
sI2802
Vnonpsychoactive
p2803
sI2803
S'sleeved'
p2804
sI2804
S'raced'
p2805
sI2805
S'sobriety'
p2806
sI2806
S'silenced'
p2807
sI2807
Vfire
p2808
sI2808
Vdeflationary
p2809
sI2809
Vwet
p2810
sI2810
Vimprudence
p2811
sI2811
S'precision'
p2812
sI2812
S'adaptable'
p2813
sI2813
S'moderation'
p2814
sI2814
S'competencies'
p2815
sI2815
S'recalled'
p2816
sI2816
S'coalitions'
p2817
sI2817
S'systematic'
p2818
sI2818
S'opposites'
p2819
sI2819
Vgrand_larceny
p2820
sI2820
S'resisted'
p2821
sI2821
Vunreliability
p2822
sI2822
S'unnecessarily'
p2823
sI2823
S'indivisible'
p2824
sI2824
S'inclement'
p2825
sI2825
S'practicality'
p2826
sI2826
S'unify'
p2827
sI2827
Vwrongness
p2828
sI2828
Vunconvincingly
p2829
sI2829
Vstraight
p2830
sI2830
Vcivility
p2831
sI2831
S'empirical'
p2832
sI2832
S'unprecedented'
p2833
sI2833
S'admire'
p2834
sI2834
S'forgetting'
p2835
sI2835
Vsocialism
p2836
sI2836
S'compactness'
p2837
sI2837
S'reliably'
p2838
sI2838
S'withdrawing'
p2839
sI2839
Vunappreciatively
p2840
sI2840
S'clouded'
p2841
sI2841
Vfoolishly
p2842
sI2842
Vuncompromising
p2843
sI2843
Vscheduled
p2844
sI2844
Vunclearness
p2845
sI2845
Vsonic
p2846
sI2846
S'embarks'
p2847
sI2847
S'violently'
p2848
sI2848
Vobtrusive
p2849
sI2849
S'faceted'
p2850
sI2850
S'bipedal'
p2851
sI2851
Vdestabilization
p2852
sI2852
S'anode'
p2853
sI2853
S'loosened'
p2854
sI2854
S'hydrostatic'
p2855
sI2855
S'fairer'
p2856
sI2856
Vhumane
p2857
sI2857
Vunnoticeable
p2858
sI2858
Vmonophonic_music
p2859
sI2859
Vunangry
p2860
sI2860
S'stimulates'
p2861
sI2861
S'headless'
p2862
sI2862
Vplay_down
p2863
sI2863
S'disappearance'
p2864
sI2864
Vshorten
p2865
sI2865
Vnay
p2866
sI2866
S'shorter'
p2867
sI2867
Vbenign
p2868
sI2868
S'discredit'
p2869
sI2869
S'orientated'
p2870
sI2870
Vunsusceptibility
p2871
sI2871
S'esteemed'
p2872
sI2872
Vproved
p2873
sI2873
Vimpious
p2874
sI2874
S'daughters'
p2875
sI2875
Vendogenic
p2876
sI2876
Vpowerlessness
p2877
sI2877
S'disenchanted'
p2878
sI2878
S'formalism'
p2879
sI2879
S'arrives'
p2880
sI2880
S'displeased'
p2881
sI2881
S'fatty'
p2882
sI2882
Vungregarious
p2883
sI2883
S'husbands'
p2884
sI2884
Vpatriotic
p2885
sI2885
S'strength'
p2886
sI2886
S'moving'
p2887
sI2887
S'decency'
p2888
sI2888
S'anhydrous'
p2889
sI2889
S'robust'
p2890
sI2890
S'usefully'
p2891
sI2891
Vdissimilarity
p2892
sI2892
S'conveniently'
p2893
sI2893
Vdark
p2894
sI2894
Vlower
p2895
sI2895
Vabnormality
p2896
sI2896
S'infertility'
p2897
sI2897
S'equalled'
p2898
sI2898
Vconsume
p2899
sI2899
S'forfeited'
p2900
sI2900
S'docked'
p2901
sI2901
S'wedged'
p2902
sI2902
Vcheer
p2903
sI2903
S'converged'
p2904
sI2904
Vineffectiveness
p2905
sI2905
S'starved'
p2906
sI2906
S'weakest'
p2907
sI2907
S'breastfeeding'
p2908
sI2908
Vdiscourteously
p2909
sI2909
S'abilities'
p2910
sI2910
S'thickened'
p2911
sI2911
Vegoistic
p2912
sI2912
Vinarticulately
p2913
sI2913
S'migratory'
p2914
sI2914
S'scrupulous'
p2915
sI2915
S'altruistic'
p2916
sI2916
Vimpreciseness
p2917
sI2917
S'competitive'
p2918
sI2918
S'unwanted'
p2919
sI2919
S'decentralized'
p2920
sI2920
S'elegance'
p2921
sI2921
S'comprehensively'
p2922
sI2922
S'love'
p2923
sI2923
S'holiness'
p2924
sI2924
Vdishonesty
p2925
sI2925
S'alignment'
p2926
sI2926
Vprofitable
p2927
sI2927
Vwaxing
p2928
sI2928
Vsuperficial
p2929
sI2929
Vloading
p2930
sI2930
S'relevancy'
p2931
sI2931
S'corroborated'
p2932
sI2932
Velation
p2933
sI2933
S'informal'
p2934
sI2934
S'correcting'
p2935
sI2935
S'workers'
p2936
sI2936
Vunscholarly
p2937
sI2937
S'likeable'
p2938
sI2938
Vpassionless
p2939
sI2939
Vindecorousness
p2940
sI2940
Vdeliberately
p2941
sI2941
S'bravery'
p2942
sI2942
S'relevance'
p2943
sI2943
Vunplayable
p2944
sI2944
S'decontamination'
p2945
sI2945
S'impoverished'
p2946
sI2946
S'profitably'
p2947
sI2947
S'remaining'
p2948
sI2948
S'unloading'
p2949
sI2949
S'niece'
p2950
sI2950
Vdependability
p2951
sI2951
S'inelastic'
p2952
sI2952
S'manage'
p2953
sI2953
Vhomozygous
p2954
sI2954
S'complains'
p2955
sI2955
S'adversaries'
p2956
sI2956
S'conformed'
p2957
sI2957
Vbig
p2958
sI2958
S'capacities'
p2959
sI2959
S'discriminatory'
p2960
sI2960
S'conscript'
p2961
sI2961
Vcheerlessly
p2962
sI2962
S'wives'
p2963
sI2963
S'enthusiastically'
p2964
sI2964
Vnoncompetitively
p2965
sI2965
S'logical'
p2966
sI2966
S'foreigners'
p2967
sI2967
S'wiser'
p2968
sI2968
Vantiseptic
p2969
sI2969
S'sharpened'
p2970
sI2970
S'competitively'
p2971
sI2971
Vformal
p2972
sI2972
S'degenerated'
p2973
sI2973
S'dislodged'
p2974
sI2974
S'improbable'
p2975
sI2975
S'systematically'
p2976
sI2976
S'follows'
p2977
sI2977
S'interestingly'
p2978
sI2978
S'adiabatic'
p2979
sI2979
Vignore
p2980
sI2980
S'achievers'
p2981
sI2981
Vdistrust
p2982
sI2982
Vcontinue
p2983
sI2983
S'spiny'
p2984
sI2984
S'borrows'
p2985
sI2985
Vinfeasibility
p2986
sI2986
S'popular'
p2987
sI2987
S'stylish'
p2988
sI2988
S'foolish'
p2989
sI2989
S'alignments'
p2990
sI2990
S'essential'
p2991
sI2991
Vnoninterference
p2992
sI2992
Vcentralize
p2993
sI2993
Voften
p2994
sI2994
S'humorous'
p2995
sI2995
S'fathers'
p2996
sI2996
S'advantages'
p2997
sI2997
Vback
p2998
sI2998
Vloser
p2999
sI2999
S'strongest'
p3000
sI3000
Vexperienced
p3001
sI3001
Vaccelerate
p3002
sI3002
S'selfishness'
p3003
sI3003
S'loses'
p3004
sI3004
S'amicable'
p3005
sI3005
S'emigrating'
p3006
sI3006
Vonymous
p3007
sI3007
Vaerobic
p3008
sI3008
S'coherence'
p3009
sI3009
S'pros'
p3010
sI3010
S'integration'
p3011
sI3011
S'adoptive'
p3012
sI3012
S'darkened'
p3013
sI3013
S'connecting'
p3014
sI3014
Vmasculinity
p3015
sI3015
S'excluding'
p3016
sI3016
S'forgets'
p3017
sI3017
S'minimal'
p3018
sI3018
Vsympathetic
p3019
sI3019
S'depressions'
p3020
sI3020
S'conscripts'
p3021
sI3021
Vspecify
p3022
sI3022
S'remembered'
p3023
sI3023
S'lose'
p3024
sI3024
S'continuing'
p3025
sI3025
Vagreement
p3026
sI3026
S'refused'
p3027
sI3027
S'outdoor'
p3028
sI3028
S'restrictive'
p3029
sI3029
S'dissonance'
p3030
sI3030
Vgracelessly
p3031
sI3031
Vdivest
p3032
sI3032
S'relating'
p3033
sI3033
S'subtract'
p3034
sI3034
Vintense
p3035
sI3035
S'elderly'
p3036
sI3036
S'unconfirmed'
p3037
sI3037
S'dystopia'
p3038
sI3038
S'exaggerated'
p3039
sI3039
Vsoft
p3040
sI3040
S'monoclinic'
p3041
sI3041
S'straightened'
p3042
sI3042
Vimpermeable
p3043
sI3043
Vamphoteric
p3044
sI3044
Vrepulsion
p3045
sI3045
S'inexperienced'
p3046
sI3046
S'hatred'
p3047
sI3047
S'complimentary'
p3048
sI3048
Vsilence
p3049
sI3049
Vcredible
p3050
sI3050
Vrepair
p3051
sI3051
Vreal
p3052
sI3052
Vnoninvasive
p3053
sI3053
S'unnoticed'
p3054
sI3054
S'auntie'
p3055
sI3055
S'aliens'
p3056
sI3056
Vfidelity
p3057
sI3057
S'elasticity'
p3058
sI3058
Vdissatisfaction
p3059
sI3059
Vunattributable
p3060
sI3060
Vappropriate
p3061
sI3061
S'inhospitable'
p3062
sI3062
Vprimarily
p3063
sI3063
Vnonparticipation
p3064
sI3064
Vcredibly
p3065
sI3065
S'boycotting'
p3066
sI3066
S'wrongs'
p3067
sI3067
S'innate'
p3068
sI3068
S'harnessed'
p3069
sI3069
Vtreated
p3070
sI3070
Vtake_away
p3071
sI3071
S'question'
p3072
sI3072
Vfast
p3073
sI3073
S'approved'
p3074
sI3074
Vindoor
p3075
sI3075
Vdisinflation
p3076
sI3076
S'rivalries'
p3077
sI3077
S'veracity'
p3078
sI3078
Vforward
p3079
sI3079
Vunenthusiastic
p3080
sI3080
S'bored'
p3081
sI3081
S'disallowed'
p3082
sI3082
Vimmodestly
p3083
sI3083
S'melodic'
p3084
sI3084
S'insensitivity'
p3085
sI3085
S'governs'
p3086
sI3086
S'graciously'
p3087
sI3087
S'relaxed'
p3088
sI3088
Vsolidity
p3089
sI3089
Vunexpendable
p3090
sI3090
S'psychoactive'
p3091
sI3091
S'boys'
p3092
sI3092
Vproperly
p3093
sI3093
Vflexor
p3094
sI3094
Vsegregation
p3095
sI3095
S'newer'
p3096
sI3096
Vclassified
p3097
sI3097
S'coldest'
p3098
sI3098
Vdisproportionately
p3099
sI3099
Vpain
p3100
sI3100
S'considerable'
p3101
sI3101
S'holiest'
p3102
sI3102
Vresistible
p3103
sI3103
Vnonpregnant
p3104
sI3104
Vhumorless
p3105
sI3105
S'nieces'
p3106
sI3106
S'fissile'
p3107
sI3107
Vnonspatial
p3108
sI3108
S'detachable'
p3109
sI3109
Vup
p3110
sI3110
S'lessened'
p3111
sI3111
S'politic'
p3112
sI3112
S'cautiously'
p3113
sI3113
Vnonpolitical
p3114
sI3114
Vmature
p3115
sI3115
Vheterogeneous
p3116
sI3116
S'loving'
p3117
sI3117
S'similar'
p3118
sI3118
Vestivate
p3119
sI3119
S'individuality'
p3120
sI3120
S'associated'
p3121
sI3121
S'adults'
p3122
sI3122
S'mindful'
p3123
sI3123
Vdefined
p3124
sI3124
S'congruence'
p3125
sI3125
S'unsafe'
p3126
sI3126
S'accessibility'
p3127
sI3127
S'singly'
p3128
sI3128
Vunreasonable
p3129
sI3129
Vdeprive
p3130
sI3130
Vtuneless
p3131
sI3131
S'obtuse'
p3132
sI3132
S'graceful'
p3133
sI3133
S'proscribed'
p3134
sI3134
Vnationalism
p3135
sI3135
S'denying'
p3136
sI3136
Vinoffensively
p3137
sI3137
S'predictability'
p3138
sI3138
S'ancestors'
p3139
sI3139
Vhydrous
p3140
sI3140
Vunjustifiably
p3141
sI3141
Vdisembarkation
p3142
sI3142
Vemployment
p3143
sI3143
S'malicious'
p3144
sI3144
S'fears'
p3145
sI3145
Vinvalid
p3146
sI3146
S'intensifying'
p3147
sI3147
S'democratically'
p3148
sI3148
S'conceptions'
p3149
sI3149
Vyang
p3150
sI3150
Vdisenchant
p3151
sI3151
Vincome
p3152
sI3152
S'shallower'
p3153
sI3153
Vinglorious
p3154
sI3154
Virreplaceable
p3155
sI3155
Vdesynchronizing
p3156
sI3156
Vdeviate
p3157
sI3157
Vnice
p3158
sI3158
S'actively'
p3159
sI3159
S'energetic'
p3160
sI3160
S'beginnings'
p3161
sI3161
Vlend
p3162
sI3162
S'understatement'
p3163
sI3163
Vfewest
p3164
sI3164
Vprepared
p3165
sI3165
S'intensified'
p3166
sI3166
S'allowing'
p3167
sI3167
Voldness
p3168
sI3168
S'deciphered'
p3169
sI3169
S'unenforceable'
p3170
sI3170
Vde-energize
p3171
sI3171
Vantecedent
p3172
sI3172
S'suffers'
p3173
sI3173
S'happier'
p3174
sI3174
S'unveiled'
p3175
sI3175
S'complicating'
p3176
sI3176
S'confirm'
p3177
sI3177
S'awakes'
p3178
sI3178
Vbequeath
p3179
sI3179
S'walked'
p3180
sI3180
S'admiring'
p3181
sI3181
Vphilogyny
p3182
sI3182
S'departs'
p3183
sI3183
S'declination'
p3184
sI3184
S'incomplete'
p3185
sI3185
S'wary'
p3186
sI3186
Vliterally
p3187
sI3187
S'inaccuracy'
p3188
sI3188
S'fresh'
p3189
sI3189
S'underrated'
p3190
sI3190
S'requires'
p3191
sI3191
S'weighty'
p3192
sI3192
S'evenly'
p3193
sI3193
Vpartial
p3194
sI3194
Vserviceman
p3195
sI3195
S'incorporate'
p3196
sI3196
Voutfield
p3197
sI3197
Vnonattendance
p3198
sI3198
S'informally'
p3199
sI3199
Vuncreativeness
p3200
sI3200
Vlowland
p3201
sI3201
Vstaleness
p3202
sI3202
S'cheerful'
p3203
sI3203
S'demobilization'
p3204
sI3204
S'renown'
p3205
sI3205
S'hypothyroidism'
p3206
sI3206
S'broader'
p3207
sI3207
Vgo
p3208
sI3208
S'query'
p3209
sI3209
S'flashback'
p3210
sI3210
S'unfaithful'
p3211
sI3211
S'worrisome'
p3212
sI3212
S'illegible'
p3213
sI3213
S'excludes'
p3214
sI3214
S'breached'
p3215
sI3215
Vnationalization
p3216
sI3216
S'uphold'
p3217
sI3217
S'disabling'
p3218
sI3218
S'booed'
p3219
sI3219
Vyoung
p3220
sI3220
S'uninformative'
p3221
sI3221
Vunpeaceful
p3222
sI3222
S'outwards'
p3223
sI3223
S'excluded'
p3224
sI3224
Vstable
p3225
sI3225
S'cluttered'
p3226
sI3226
Vdislike
p3227
sI3227
S'fatal'
p3228
sI3228
S'friendly'
p3229
sI3229
S'disliking'
p3230
sI3230
Vvirtuous
p3231
sI3231
Vbreathing
p3232
sI3232
Vimplicitly
p3233
sI3233
S'continues'
p3234
sI3234
S'prudence'
p3235
sI3235
S'exiled'
p3236
sI3236
S'unstructured'
p3237
sI3237
Vindication
p3238
sI3238
S'felicity'
p3239
sI3239
S'materialise'
p3240
sI3240
S'implausible'
p3241
sI3241
S'lacking'
p3242
sI3242
Vdiscouragement
p3243
sI3243
Vindecorum
p3244
sI3244
S'continued'
p3245
sI3245
S'necessitating'
p3246
sI3246
S'arrange'
p3247
sI3247
S'sanctified'
p3248
sI3248
S'sanctity'
p3249
sI3249
S'diverging'
p3250
sI3250
Vnonmigratory
p3251
sI3251
Vunmalicious
p3252
sI3252
S'fewer'
p3253
sI3253
S'damning'
p3254
sI3254
Vinelegant
p3255
sI3255
S'minimizing'
p3256
sI3256
S'avoiding'
p3257
sI3257
Vdeciduous_plant
p3258
sI3258
Vmobilize
p3259
sI3259
S'materialised'
p3260
sI3260
S'enforce'
p3261
sI3261
S'calmed'
p3262
sI3262
S'impressively'
p3263
sI3263
S'lightest'
p3264
sI3264
S'licensed'
p3265
sI3265
Vrevocable
p3266
sI3266
Vunprofitably
p3267
sI3267
Vuncomfortable
p3268
sI3268
Vdownload
p3269
sI3269
S'unimproved'
p3270
sI3270
S'odd'
p3271
sI3271
S'depression'
p3272
sI3272
Vscientific
p3273
sI3273
S'subsurface'
p3274
sI3274
S'ovulation'
p3275
sI3275
S'invertible'
p3276
sI3276
S'opaque'
p3277
sI3277
S'waning'
p3278
sI3278
Vdiscontinuance
p3279
sI3279
S'exacerbate'
p3280
sI3280
Vinconstancy
p3281
sI3281
Vunhelpful
p3282
sI3282
S'consistently'
p3283
sI3283
Vgutlessness
p3284
sI3284
Vsour
p3285
sI3285
S'irreparable'
p3286
sI3286
S'nights'
p3287
sI3287
Vfearlessness
p3288
sI3288
Vunairworthy
p3289
sI3289
Vunenthusiastically
p3290
sI3290
S'apologetic'
p3291
sI3291
S'gathered'
p3292
sI3292
Vnonexistent
p3293
sI3293
S'youngest'
p3294
sI3294
S'growing'
p3295
sI3295
Vacquit
p3296
sI3296
S'poverty'
p3297
sI3297
Vdownmarket
p3298
sI3298
S'separation'
p3299
sI3299
S'dissuade'
p3300
sI3300
S'sexy'
p3301
sI3301
S'safer'
p3302
sI3302
S'enterprising'
p3303
sI3303
Vimplicit
p3304
sI3304
S'widening'
p3305
sI3305
S'newness'
p3306
sI3306
Vengage
p3307
sI3307
Vdefend
p3308
sI3308
S'dividing'
p3309
sI3309
S'uneasy'
p3310
sI3310
Vconceit
p3311
sI3311
Vinvolved
p3312
sI3312
Vunwittingly
p3313
sI3313
Vstupidity
p3314
sI3314
S'benevolence'
p3315
sI3315
Vrepel
p3316
sI3316
S'slightest'
p3317
sI3317
Vdecriminalise
p3318
sI3318
S'merges'
p3319
sI3319
S'existent'
p3320
sI3320
S'antecedents'
p3321
sI3321
S'residents'
p3322
sI3322
S'disowned'
p3323
sI3323
Vhonor
p3324
sI3324
S'chaste'
p3325
sI3325
S'daybreak'
p3326
sI3326
S'stabilization'
p3327
sI3327
S'nearest'
p3328
sI3328
Vforbid
p3329
sI3329
S'folded'
p3330
sI3330
Vdisobey
p3331
sI3331
Vworthy
p3332
sI3332
Vsameness
p3333
sI3333
Vimmoderation
p3334
sI3334
Vundemocratically
p3335
sI3335
Vunwillingly
p3336
sI3336
Vendogamy
p3337
sI3337
Vdecrease
p3338
sI3338
Vprivately
p3339
sI3339
Vreserved
p3340
sI3340
S'clockwise'
p3341
sI3341
Vinconveniently
p3342
sI3342
S'strapped'
p3343
sI3343
S'cheered'
p3344
sI3344
S'proactive'
p3345
sI3345
S'recalling'
p3346
sI3346
Villegal
p3347
sI3347
S'seamless'
p3348
sI3348
S'adequacy'
p3349
sI3349
S'figurative'
p3350
sI3350
Vfew
p3351
sI3351
S'doubt'
p3352
sI3352
Vcontentment
p3353
sI3353
S'bester'
p3354
sI3354
S'availability'
p3355
sI3355
S'constitutionally'
p3356
sI3356
Vretail
p3357
sI3357
Vagreeable
p3358
sI3358
S'noisy'
p3359
sI3359
Vasynchronism
p3360
sI3360
S'impotence'
p3361
sI3361
S'sons'
p3362
sI3362
S'inaccessible'
p3363
sI3363
Vunrighteous
p3364
sI3364
S'unilaterally'
p3365
sI3365
Vinfamy
p3366
sI3366
S'untamed'
p3367
sI3367
S'started'
p3368
sI3368
S'undeclared'
p3369
sI3369
Vmendacity
p3370
sI3370
S'visibility'
p3371
sI3371
S'disarming'
p3372
sI3372
Vlodge
p3373
sI3373
Vderegulate
p3374
sI3374
S'ashamed'
p3375
sI3375
Vquadrupedal
p3376
sI3376
S'debtors'
p3377
sI3377
Vinattentive
p3378
sI3378
S'rivalry'
p3379
sI3379
Vungrudgingly
p3380
sI3380
S'women'
p3381
sI3381
S'frequently'
p3382
sI3382
S'stabilized'
p3383
sI3383
S'disingenuous'
p3384
sI3384
S'integrating'
p3385
sI3385
S'succeeds'
p3386
sI3386
Vride
p3387
sI3387
Vavascular
p3388
sI3388
S'wildest'
p3389
sI3389
S'obvious'
p3390
sI3390
Vthin
p3391
sI3391
Vpraise
p3392
sI3392
S'backwards'
p3393
sI3393
S'closing'
p3394
sI3394
Vinhibitor
p3395
sI3395
Vcertainty
p3396
sI3396
S'purity'
p3397
sI3397
Vcontinuity
p3398
sI3398
S'weaker'
p3399
sI3399
S'prohibiting'
p3400
sI3400
S'speciality'
p3401
sI3401
Vthirsty
p3402
sI3402
Vhypersomnia
p3403
sI3403
Vlock
p3404
sI3404
S'slim'
p3405
sI3405
S'heresy'
p3406
sI3406
S'high'
p3407
sI3407
S'effectively'
p3408
sI3408
Vlegible
p3409
sI3409
Vbend
p3410
sI3410
S'employs'
p3411
sI3411
S'intramural'
p3412
sI3412
Vovertly
p3413
sI3413
Vweaken
p3414
sI3414
S'sis'
p3415
sI3415
S'unclassified'
p3416
sI3416
S'united'
p3417
sI3417
Vnonextensile
p3418
sI3418
S'hydrophilic'
p3419
sI3419
S'friendlies'
p3420
sI3420
Vintelligible
p3421
sI3421
Vunrelatedness
p3422
sI3422
Vnearness
p3423
sI3423
Vclement
p3424
sI3424
Vpatronize
p3425
sI3425
S'winners'
p3426
sI3426
S'unites'
p3427
sI3427
S'complained'
p3428
sI3428
S'justifiably'
p3429
sI3429
S'aft'
p3430
sI3430
Vtoadstool
p3431
sI3431
S'grudgingly'
p3432
sI3432
S'comedy'
p3433
sI3433
S'intelligent'
p3434
sI3434
Vdefeat
p3435
sI3435
S'ceasing'
p3436
sI3436
S'maternal'
p3437
sI3437
S'attend'
p3438
sI3438
Vsingular
p3439
sI3439
S'incompetence'
p3440
sI3440
S'tact'
p3441
sI3441
S'peace'
p3442
sI3442
Vunseductive
p3443
sI3443
S'nullify'
p3444
sI3444
Vdiscomfort
p3445
sI3445
S'complainant'
p3446
sI3446
Vlegality
p3447
sI3447
Vunnaturally
p3448
sI3448
S'disproved'
p3449
sI3449
Vprolix
p3450
sI3450
S'loaned'
p3451
sI3451
S'efficiently'
p3452
sI3452
Vambiguous
p3453
sI3453
S'majorities'
p3454
sI3454
S'undemocratic'
p3455
sI3455
Vbind
p3456
sI3456
Vsit
p3457
sI3457
Vunprejudiced
p3458
sI3458
S'congruent'
p3459
sI3459
Vmalevolence
p3460
sI3460
S'synchronization'
p3461
sI3461
Vdecolonise
p3462
sI3462
S'allow'
p3463
sI3463
S'volunteers'
p3464
sI3464
S'divided'
p3465
sI3465
S'longest'
p3466
sI3466
S'ignite'
p3467
sI3467
S'unsolved'
p3468
sI3468
Vunderstate
p3469
sI3469
Vsaturated
p3470
sI3470
S'lenders'
p3471
sI3471
S'sanctioned'
p3472
sI3472
Vunpalatable
p3473
sI3473
S'demobilized'
p3474
sI3474
S'disarm'
p3475
sI3475
S'cautions'
p3476
sI3476
S'twining'
p3477
sI3477
Vrepentant
p3478
sI3478
Vunofficially
p3479
sI3479
S'including'
p3480
sI3480
S'stimulating'
p3481
sI3481
Vatypically
p3482
sI3482
S'flattering'
p3483
sI3483
S'roughness'
p3484
sI3484
S'happiest'
p3485
sI3485
Vnontranslational
p3486
sI3486
S'superior'
p3487
sI3487
S'normality'
p3488
sI3488
S'outer'
p3489
sI3489
S'exclusion'
p3490
sI3490
Vovervalue
p3491
sI3491
Vfemale_parent
p3492
sI3492
Vinclusion
p3493
sI3493
Vlanded
p3494
sI3494
Vimperfection
p3495
sI3495
S'shortened'
p3496
sI3496
S'untreated'
p3497
sI3497
Vmental
p3498
sI3498
Vwilling
p3499
sI3499
S'insulator'
p3500
sI3500
Vunbox
p3501
sI3501
S'prohibit'
p3502
sI3502
S'covered'
p3503
sI3503
Vimbalance
p3504
sI3504
S'infertile'
p3505
sI3505
S'violating'
p3506
sI3506
Vnonfatal
p3507
sI3507
Vdescriptive
p3508
sI3508
S'bolder'
p3509
sI3509
Vaggrade
p3510
sI3510
Vmaterial
p3511
sI3511
S'blessed'
p3512
sI3512
S'negligent'
p3513
sI3513
Vunimpressively
p3514
sI3514
S'seawater'
p3515
sI3515
S'resolve'
p3516
sI3516
S'rougher'
p3517
sI3517
Voff-line
p3518
sI3518
Vfront
p3519
sI3519
Vdocumented
p3520
sI3520
S'genuine'
p3521
sI3521
S'artefacts'
p3522
sI3522
S'dielectric'
p3523
sI3523
S'literacy'
p3524
sI3524
S'mushrooms'
p3525
sI3525
S'awaken'
p3526
sI3526
S'profound'
p3527
sI3527
S'tallied'
p3528
sI3528
S'immoral'
p3529
sI3529
Vdemote
p3530
sI3530
Vinadvisable
p3531
sI3531
S'concave'
p3532
sI3532
Virrelevance
p3533
sI3533
S'draftees'
p3534
sI3534
S'colonize'
p3535
sI3535
Vtruth
p3536
sI3536
S'pleasures'
p3537
sI3537
Vunevenly
p3538
sI3538
S'rising'
p3539
sI3539
S'beneath'
p3540
sI3540
S'uninteresting'
p3541
sI3541
Vwhiten
p3542
sI3542
S'homogeneous'
p3543
sI3543
S'exacerbated'
p3544
sI3544
Vlook_down_on
p3545
sI3545
S'privatisation'
p3546
sI3546
S'soften'
p3547
sI3547
Vunrhythmical
p3548
sI3548
Vwaking
p3549
sI3549
S'staying'
p3550
sI3550
Vrelated
p3551
sI3551
S'aggravated'
p3552
sI3552
Vnegate
p3553
sI3553
S'burdened'
p3554
sI3554
S'licking'
p3555
sI3555
S'relates'
p3556
sI3556
S'satisfied'
p3557
sI3557
Vforceless
p3558
sI3558
S'controversially'
p3559
sI3559
S'cerebral'
p3560
sI3560
S'corresponded'
p3561
sI3561
S'integrates'
p3562
sI3562
Vunproductively
p3563
sI3563
Vunlawful
p3564
sI3564
Venforceable
p3565
sI3565
Vwholly
p3566
sI3566
Vinclude
p3567
sI3567
S'bicameral'
p3568
sI3568
S'unclean'
p3569
sI3569
Vstay_in_place
p3570
sI3570
S'maximized'
p3571
sI3571
S'unprepared'
p3572
sI3572
S'adaptive'
p3573
sI3573
Vplural
p3574
sI3574
S'integrated'
p3575
sI3575
S'affirming'
p3576
sI3576
Vunreproducible
p3577
sI3577
S'dissented'
p3578
sI3578
Vnonmechanical
p3579
sI3579
S'shut'
p3580
sI3580
S'perish'
p3581
sI3581
S'unwieldy'
p3582
sI3582
Vunmemorably
p3583
sI3583
Vdiscontinuity
p3584
sI3584
Vinferiority
p3585
sI3585
S'repelled'
p3586
sI3586
S'clarify'
p3587
sI3587
S'completely'
p3588
sI3588
S'provident'
p3589
sI3589
S'tied'
p3590
sI3590
S'disintegrating'
p3591
sI3591
S'conservatives'
p3592
sI3592
Vasynchronous
p3593
sI3593
S'likelihood'
p3594
sI3594
S'shortest'
p3595
sI3595
S'repairing'
p3596
sI3596
S'dismantled'
p3597
sI3597
S'certifications'
p3598
sI3598
Vorganic
p3599
sI3599
S'segregated'
p3600
sI3600
S'environmentalism'
p3601
sI3601
S'substantiate'
p3602
sI3602
S'rushed'
p3603
sI3603
S'put'
p3604
sI3604
Vkeep
p3605
sI3605
S'intoxicated'
p3606
sI3606
Visotropic
p3607
sI3607
S'defendant'
p3608
sI3608
S'distrusted'
p3609
sI3609
S'diminishes'
p3610
sI3610
Vsorrowful
p3611
sI3611
S'stimulate'
p3612
sI3612
S'softer'
p3613
sI3613
S'rudely'
p3614
sI3614
S'incarnate'
p3615
sI3615
S'exonerated'
p3616
sI3616
Vsuffix
p3617
sI3617
Vethical
p3618
sI3618
S'powerful'
p3619
sI3619
S'unsupported'
p3620
sI3620
S'introspective'
p3621
sI3621
Vunproductiveness
p3622
sI3622
Vrugged
p3623
sI3623
S'filial'
p3624
sI3624
S'synthesizing'
p3625
sI3625
Voverestimate
p3626
sI3626
Vlong
p3627
sI3627
S'sadly'
p3628
sI3628
S'uninhabited'
p3629
sI3629
Vextrinsic
p3630
sI3630
Vunequivocal
p3631
sI3631
Vnonarbitrary
p3632
sI3632
S'unspecified'
p3633
sI3633
S'realistically'
p3634
sI3634
Vnonexploratory
p3635
sI3635
S'expediency'
p3636
sI3636
S'deducted'
p3637
sI3637
S'lifting'
p3638
sI3638
S'intelligence'
p3639
sI3639
S'wrapped'
p3640
sI3640
S'travelled'
p3641
sI3641
Vbadness
p3642
sI3642
S'fairest'
p3643
sI3643
S'painful'
p3644
sI3644
Vpaved
p3645
sI3645
S'disagreeable'
p3646
sI3646
S'resists'
p3647
sI3647
Vunscrupulous
p3648
sI3648
S'infallibility'
p3649
sI3649
S'plausibly'
p3650
sI3650
S'unoccupied'
p3651
sI3651
Vungrammatically
p3652
sI3652
S'depressing'
p3653
sI3653
S'monotheism'
p3654
sI3654
Vbottom_out
p3655
sI3655
S'suitability'
p3656
sI3656
S'representational'
p3657
sI3657
S'synergistic'
p3658
sI3658
S'commence'
p3659
sI3659
Vstressed
p3660
sI3660
Vremember
p3661
sI3661
S'loved'
p3662
sI3662
S'relaxing'
p3663
sI3663
S'succeeded'
p3664
sI3664
S'bloodiest'
p3665
sI3665
S'richer'
p3666
sI3666
Varmament
p3667
sI3667
Vincompleteness
p3668
sI3668
Vdefense
p3669
sI3669
S'loves'
p3670
sI3670
Vlight
p3671
sI3671
Vmonophony
p3672
sI3672
S'abolished'
p3673
sI3673
S'indistinct'
p3674
sI3674
S'hastily'
p3675
sI3675
Vgreater
p3676
sI3676
S'creditors'
p3677
sI3677
S'faulted'
p3678
sI3678
S'enforced'
p3679
sI3679
S'symmetries'
p3680
sI3680
S'separations'
p3681
sI3681
S'trusting'
p3682
sI3682
Vnonsurgical
p3683
sI3683
S'curves'
p3684
sI3684
S'reassuring'
p3685
sI3685
S'landless'
p3686
sI3686
Vunavailability
p3687
sI3687
Vunintrusive
p3688
sI3688
S'enforces'
p3689
sI3689
Vhave
p3690
sI3690
Vclose
p3691
sI3691
Velate
p3692
sI3692
S'linked'
p3693
sI3693
Vcomplete
p3694
sI3694
Vacceleration
p3695
sI3695
S'competency'
p3696
sI3696
Vafraid
p3697
sI3697
S'minimally'
p3698
sI3698
S'propriety'
p3699
sI3699
S'vested'
p3700
sI3700
S'able'
p3701
sI3701
Vdenaturalize
p3702
sI3702
Vincentive
p3703
sI3703
Varm
p3704
sI3704
S'ably'
p3705
sI3705
S'declined'
p3706
sI3706
Vsufficiency
p3707
sI3707
Vdissuasive
p3708
sI3708
S'seductive'
p3709
sI3709
Vcompetence
p3710
sI3710
S'vegetation'
p3711
sI3711
S'toughest'
p3712
sI3712
Vliberator
p3713
sI3713
Vincorruptness
p3714
sI3714
Vsatisfy
p3715
sI3715
S'harmful'
p3716
sI3716
Vcourtesy
p3717
sI3717
Vconnected
p3718
sI3718
S'demise'
p3719
sI3719
S'eukaryotes'
p3720
sI3720
Vunfaithfulness
p3721
sI3721
S'regressive'
p3722
sI3722
Vunsexy
p3723
sI3723
Vfuture
p3724
sI3724
S'intrinsic'
p3725
sI3725
S'payment'
p3726
sI3726
Vdorsal
p3727
sI3727
Vprove
p3728
sI3728
Vdeny
p3729
sI3729
S'subtracted'
p3730
sI3730
S'ignites'
p3731
sI3731
S'undeniable'
p3732
sI3732
S'enthusiastic'
p3733
sI3733
S'atypical'
p3734
sI3734
S'stronger'
p3735
sI3735
Vreconcilable
p3736
sI3736
S'ignited'
p3737
sI3737
S'hierarchical'
p3738
sI3738
S'artificially'
p3739
sI3739
Vmilitarise
p3740
sI3740
S'mechanical'
p3741
sI3741
S'intensifies'
p3742
sI3742
Vtypical
p3743
sI3743
S'normally'
p3744
sI3744
Vunsystematic
p3745
sI3745
Vincredibility
p3746
sI3746
Vthicken
p3747
sI3747
S'insulators'
p3748
sI3748
Vconvinced
p3749
sI3749
Vfamiliarity
p3750
sI3750
S'agreed'
p3751
sI3751
Vsupported
p3752
sI3752
S'terminate'
p3753
sI3753
S'centralized'
p3754
sI3754
Vmalodorous
p3755
sI3755
S'unbelievable'
p3756
sI3756
S'tearful'
p3757
sI3757
S'brine'
p3758
sI3758
S'unpaved'
p3759
sI3759
S'unconnected'
p3760
sI3760
S'fear'
p3761
sI3761
S'darkest'
p3762
sI3762
Vunintelligibility
p3763
sI3763
S'agrees'
p3764
sI3764
S'unbreakable'
p3765
sI3765
S'nearer'
p3766
sI3766
S'satisfies'
p3767
sI3767
S'holistic'
p3768
sI3768
S'unfinished'
p3769
sI3769
S'incapacitated'
p3770
sI3770
S'downstairs'
p3771
sI3771
Vwinner
p3772
sI3772
Vhopeful
p3773
sI3773
Vemployer
p3774
sI3774
S'reactive'
p3775
sI3775
Vdestabilisation
p3776
sI3776
S'obeys'
p3777
sI3777
S'disengaged'
p3778
sI3778
Vemployee
p3779
sI3779
S'local'
p3780
sI3780
Vmortality
p3781
sI3781
S'equilibrium'
p3782
sI3782
S'regularly'
p3783
sI3783
S'squandered'
p3784
sI3784
S'slows'
p3785
sI3785
Vinvariability
p3786
sI3786
S'disprove'
p3787
sI3787
Vplaintiff
p3788
sI3788
Vfamiliar
p3789
sI3789
S'unchained'
p3790
sI3790
S'simplest'
p3791
sI3791
Vlucky
p3792
sI3792
S'enthroned'
p3793
sI3793
Vcommonality
p3794
sI3794
S'voided'
p3795
sI3795
S'legitimate'
p3796
sI3796
S'acidic'
p3797
sI3797
Vwise
p3798
sI3798
S'ascended'
p3799
sI3799
S'antagonist'
p3800
sI3800
S'playful'
p3801
sI3801
S'evolution'
p3802
sI3802
Vdishearten
p3803
sI3803
Vsanely
p3804
sI3804
S'exportation'
p3805
sI3805
Vsame
p3806
sI3806
S'adaptability'
p3807
sI3807
Vincomprehension
p3808
sI3808
Vmarried
p3809
sI3809
S'expansions'
p3810
sI3810
Vinsectivorous
p3811
sI3811
S'demilitarized'
p3812
sI3812
Vincapacity
p3813
sI3813
Vcounterfeit
p3814
sI3814
S'avoidable'
p3815
sI3815
S'queries'
p3816
sI3816
S'tightening'
p3817
sI3817
S'unplugged'
p3818
sI3818
S'fixed'
p3819
sI3819
Vfallibility
p3820
sI3820
Vdiscontentment
p3821
sI3821
S'warred'
p3822
sI3822
S'conform'
p3823
sI3823
S'temporarily'
p3824
sI3824
Vdownward
p3825
sI3825
Vmarginality
p3826
sI3826
S'omitting'
p3827
sI3827
Vfreeze
p3828
sI3828
Vunfavorable
p3829
sI3829
S'merits'
p3830
sI3830
S'usefulness'
p3831
sI3831
S'unfairly'
p3832
sI3832
S'refrained'
p3833
sI3833
S'flashbacks'
p3834
sI3834
Vendothermic
p3835
sI3835
S'packed'
p3836
sI3836
Vdanger
p3837
sI3837
S'disjunct'
p3838
sI3838
S'joys'
p3839
sI3839
S'partisan'
p3840
sI3840
Vinefficaciously
p3841
sI3841
Vdematerialise
p3842
sI3842
S'smallest'
p3843
sI3843
Vperipherally
p3844
sI3844
Vwritten
p3845
sI3845
S'unravel'
p3846
sI3846
Vinjustice
p3847
sI3847
S'closed'
p3848
sI3848
S'legitimize'
p3849
sI3849
S'nuclear'
p3850
sI3850
S'email'
p3851
sI3851
S'bought'
p3852
sI3852
S'wisely'
p3853
sI3853
Vvariability
p3854
sI3854
S'comparable'
p3855
sI3855
Vmasochistic
p3856
sI3856
Vability
p3857
sI3857
S'laymen'
p3858
sI3858
S'importance'
p3859
sI3859
Vweak
p3860
sI3860
S'sorrow'
p3861
sI3861
S'steepest'
p3862
sI3862
Vefficiency
p3863
sI3863
Vnonwoody
p3864
sI3864
Vapproval
p3865
sI3865
Voptional
p3866
sI3866
Vdistribution
p3867
sI3867
S'declining'
p3868
sI3868
S'unambiguously'
p3869
sI3869
S'undetermined'
p3870
sI3870
S'unstoppable'
p3871
sI3871
Vtrimmed
p3872
sI3872
Vdiligent
p3873
sI3873
S'disobeyed'
p3874
sI3874
S'whispered'
p3875
sI3875
Vequal
p3876
sI3876
S'beliefs'
p3877
sI3877
S'voiceless'
p3878
sI3878
Vadmit
p3879
sI3879
S'busted'
p3880
sI3880
S'acyclic'
p3881
sI3881
S'clogged'
p3882
sI3882
Vimmodest
p3883
sI3883
S'decorum'
p3884
sI3884
S'glorious'
p3885
sI3885
S'unconvincing'
p3886
sI3886
S'withdraws'
p3887
sI3887
Vroughen
p3888
sI3888
S'unclear'
p3889
sI3889
S'disenfranchised'
p3890
sI3890
S'gone'
p3891
sI3891
S'invasive'
p3892
sI3892
S'disservice'
p3893
sI3893
S'narrower'
p3894
sI3894
S'paranormal'
p3895
sI3895
S'laity'
p3896
sI3896
S'competent'
p3897
sI3897
Vmaximize
p3898
sI3898
S'kings'
p3899
sI3899
S'narrowed'
p3900
sI3900
S'crystalline'
p3901
sI3901
S'withdrawn'
p3902
sI3902
Vunhappiness
p3903
sI3903
S'quit'
p3904
sI3904
S'protective'
p3905
sI3905
S'brotherly'
p3906
sI3906
Vuntrustiness
p3907
sI3907
S'aligning'
p3908
sI3908
S'covertly'
p3909
sI3909
S'conjoined'
p3910
sI3910
S'inertia'
p3911
sI3911
S'validating'
p3912
sI3912
Vliteral
p3913
sI3913
Voutflow
p3914
sI3914
S'attends'
p3915
sI3915
Vminimise
p3916
sI3916
S'upbeat'
p3917
sI3917
S'hottest'
p3918
sI3918
Vbottlefeed
p3919
sI3919
S'uplifted'
p3920
sI3920
Vasymmetrically
p3921
sI3921
Vexoteric
p3922
sI3922
Vcontrolled
p3923
sI3923
Vretrospective
p3924
sI3924
Vsufficient
p3925
sI3925
S'releasing'
p3926
sI3926
S'varietal'
p3927
sI3927
S'topless'
p3928
sI3928
S'bulk'
p3929
sI3929
Vefflux
p3930
sI3930
S'expenditure'
p3931
sI3931
S'exogenous'
p3932
sI3932
S'hateful'
p3933
sI3933
Vimproved
p3934
sI3934
S'altruism'
p3935
sI3935
S'expounded'
p3936
sI3936
Vinconspicuous
p3937
sI3937
Vanticatalyst
p3938
sI3938
S'debtor'
p3939
sI3939
Vhypotension
p3940
sI3940
Vtoothless
p3941
sI3941
S'unlike'
p3942
sI3942
Vfemale_monarch
p3943
sI3943
S'ungrammatical'
p3944
sI3944
S'slept'
p3945
sI3945
Valign
p3946
sI3946
S'harder'
p3947
sI3947
Vsmokeless
p3948
sI3948
S'pretentious'
p3949
sI3949
S'harden'
p3950
sI3950
S'reliability'
p3951
sI3951
S'inaccurately'
p3952
sI3952
S'depreciation'
p3953
sI3953
S'tasty'
p3954
sI3954
S'advisable'
p3955
sI3955
S'discontinuation'
p3956
sI3956
S'amenity'
p3957
sI3957
S'parallelogram'
p3958
sI3958
S'diminished'
p3959
sI3959
S'ripe'
p3960
sI3960
S'resident'
p3961
sI3961
S'insanely'
p3962
sI3962
Vunintelligent
p3963
sI3963
S'encouragement'
p3964
sI3964
Vhardware
p3965
sI3965
Vhearten
p3966
sI3966
Voptimistic
p3967
sI3967
Vmaladaptive
p3968
sI3968
S'claimed'
p3969
sI3969
Vbloodless
p3970
sI3970
S'sits'
p3971
sI3971
Vconserve
p3972
sI3972
S'belatedly'
p3973
sI3973
Vunfaithfully
p3974
sI3974
S'watchful'
p3975
sI3975
Vincautiously
p3976
sI3976
S'productivity'
p3977
sI3977
Vunacceptability
p3978
sI3978
S'admitted'
p3979
sI3979
Vgeneric
p3980
sI3980
S'began'
p3981
sI3981
S'progressing'
p3982
sI3982
Vindistinguishable
p3983
sI3983
S'defiant'
p3984
sI3984
S'member'
p3985
sI3985
S'contraindications'
p3986
sI3986
Vunintelligently
p3987
sI3987
S'strange'
p3988
sI3988
Vbe_born
p3989
sI3989
Vmerciful
p3990
sI3990
Vunprophetic
p3991
sI3991
S'largest'
p3992
sI3992
S'soundness'
p3993
sI3993
S'finite'
p3994
sI3994
Vprivileged
p3995
sI3995
Vdisorient
p3996
sI3996
Vdifficult
p3997
sI3997
Vinjured
p3998
sI3998
Vunconventional
p3999
sI3999
S'emotionally'
p4000
sI4000
S'cubic'
p4001
sI4001
Veccentric
p4002
sI4002
Vretarded
p4003
sI4003
Vdisagree
p4004
sI4004
S'unwelcome'
p4005
sI4005
S'diplomatically'
p4006
sI4006
Vundescriptive
p4007
sI4007
Vpolytheistic
p4008
sI4008
Vunobvious
p4009
sI4009
Vunclutter
p4010
sI4010
Vinfinite
p4011
sI4011
S'causative'
p4012
sI4012
Vwrongly
p4013
sI4013
Vill-being
p4014
sI4014
S'tighter'
p4015
sI4015
S'energized'
p4016
sI4016
Villogical
p4017
sI4017
Voff
p4018
sI4018
Vextramural
p4019
sI4019
Vsensitiveness
p4020
sI4020
S'disoriented'
p4021
sI4021
S'insurmountable'
p4022
sI4022
Vreliableness
p4023
sI4023
S'oft'
p4024
sI4024
S'credibility'
p4025
sI4025
Vdecentralization
p4026
sI4026
S'starboard'
p4027
sI4027
Vdiversify
p4028
sI4028
S'usual'
p4029
sI4029
S'spherical'
p4030
sI4030
S'upgraded'
p4031
sI4031
Vinconsistently
p4032
sI4032
S'newest'
p4033
sI4033
Vde-escalate
p4034
sI4034
S'accurate'
p4035
sI4035
Vdomestic
p4036
sI4036
S'necessitate'
p4037
sI4037
Vlossy
p4038
sI4038
S'distant'
p4039
sI4039
Vsubsonic
p4040
sI4040
S'merge'
p4041
sI4041
Vinefficacy
p4042
sI4042
Voutbred
p4043
sI4043
S'coordination'
p4044
sI4044
Vhappiness
p4045
sI4045
S'artesian'
p4046
sI4046
S'generous'
p4047
sI4047
Vclaim
p4048
sI4048
Vclergyman
p4049
sI4049
Vunite
p4050
sI4050
S'intercontinental'
p4051
sI4051
Vcommon
p4052
sI4052
S'residential'
p4053
sI4053
Vpassively
p4054
sI4054
S'unsigned'
p4055
sI4055
S'capabilities'
p4056
sI4056
Vday
p4057
sI4057
Vadd
p4058
sI4058
S'valid'
p4059
sI4059
S'attractive'
p4060
sI4060
Vmeagerly
p4061
sI4061
Vexempt
p4062
sI4062
Vravel
p4063
sI4063
Vaccompanied
p4064
sI4064
Vimpassable
p4065
sI4065
Vconfront
p4066
sI4066
S'increased'
p4067
sI4067
Vample
p4068
sI4068
S'immaterial'
p4069
sI4069
S'thicker'
p4070
sI4070
Vsolvency
p4071
sI4071
Vimprovident
p4072
sI4072
Vunbalance
p4073
sI4073
Vunquestionable
p4074
sI4074
Vknot
p4075
sI4075
S'resolves'
p4076
sI4076
S'securities'
p4077
sI4077
Vamply
p4078
sI4078
S'passable'
p4079
sI4079
Vdescendant
p4080
sI4080
Vcauline
p4081
sI4081
Vimproper
p4082
sI4082
S'necessary'
p4083
sI4083
S'helpful'
p4084
sI4084
S'success'
p4085
sI4085
Vdepersonalise
p4086
sI4086
S'safest'
p4087
sI4087
S'starry'
p4088
sI4088
Vqualitative
p4089
sI4089
S'accelerating'
p4090
sI4090
S'parasite'
p4091
sI4091
S'payments'
p4092
sI4092
S'heed'
p4093
sI4093
Vnonfunctional
p4094
sI4094
Vunscalable
p4095
sI4095
Vnominative
p4096
sI4096
Vsmoothness
p4097
sI4097
Vaccessible
p4098
sI4098
Vopacity
p4099
sI4099
Vnonspherical
p4100
sI4100
S'allowed'
p4101
sI4101
Virresponsibly
p4102
sI4102
Vwindward
p4103
sI4103
S'discontinuities'
p4104
sI4104
S'upgrades'
p4105
sI4105
S'alive'
p4106
sI4106
Vfresh_water
p4107
sI4107
S'corroborate'
p4108
sI4108
S'daylight'
p4109
sI4109
S'growth'
p4110
sI4110
Vexport
p4111
sI4111
Vnonslippery
p4112
sI4112
Velitist
p4113
sI4113
S'proper'
p4114
sI4114
Vwieldy
p4115
sI4115
S'liking'
p4116
sI4116
S'supportive'
p4117
sI4117
S'neglecting'
p4118
sI4118
Vvarietal_wine
p4119
sI4119
Vuncontroversially
p4120
sI4120
Vcontested
p4121
sI4121
Vindefinite
p4122
sI4122
Vineligibility
p4123
sI4123
Vrealistic
p4124
sI4124
Vpromotion
p4125
sI4125
S'avoid'
p4126
sI4126
Vwittingly
p4127
sI4127
S'staccato'
p4128
sI4128
Voutgo
p4129
sI4129
Vinaccessibility
p4130
sI4130
Vnonfinancial
p4131
sI4131
S'humorously'
p4132
sI4132
S'salaried'
p4133
sI4133
Vimpolitely
p4134
sI4134
Vnonviolently
p4135
sI4135
Vleader
p4136
sI4136
Vungraciously
p4137
sI4137
Vinaccurate
p4138
sI4138
Vincorrectness
p4139
sI4139
S'silencing'
p4140
sI4140
S'expansion'
p4141
sI4141
Vhost
p4142
sI4142
S'immature'
p4143
sI4143
S'prohibited'
p4144
sI4144
Vunsuitability
p4145
sI4145
S'offset'
p4146
sI4146
Vnonconformity
p4147
sI4147
S'adversary'
p4148
sI4148
S'kinder'
p4149
sI4149
S'simpler'
p4150
sI4150
Vinconsiderate
p4151
sI4151
S'sister'
p4152
sI4152
S'actual'
p4153
sI4153
Vlinger
p4154
sI4154
S'withdrew'
p4155
sI4155
S'serviceable'
p4156
sI4156
S'compatible'
p4157
sI4157
S'blessings'
p4158
sI4158
Vunidirectional
p4159
sI4159
S'blackness'
p4160
sI4160
S'insufficient'
p4161
sI4161
Vupward
p4162
sI4162
S'eloquently'
p4163
sI4163
S'software'
p4164
sI4164
S'artefact'
p4165
sI4165
S'stator'
p4166
sI4166
S'faithfulness'
p4167
sI4167
S'argumentative'
p4168
sI4168
S'unfavourable'
p4169
sI4169
S'political'
p4170
sI4170
Vuncertain
p4171
sI4171
S'functional'
p4172
sI4172
Vlow_quality
p4173
sI4173
S'outward'
p4174
sI4174
S'chronic'
p4175
sI4175
S'acquitted'
p4176
sI4176
S'esteem'
p4177
sI4177
S'female'
p4178
sI4178
S'lawful'
p4179
sI4179
S'zoology'
p4180
sI4180
Vpervious
p4181
sI4181
Vquickly
p4182
sI4182
S'pointless'
p4183
sI4183
Vimproperness
p4184
sI4184
Vunfashionable
p4185
sI4185
Vantitype
p4186
sI4186
S'terminated'
p4187
sI4187
Vimpatience
p4188
sI4188
Velastic
p4189
sI4189
S'synthesized'
p4190
sI4190
Vnoxious
p4191
sI4191
S'airworthy'
p4192
sI4192
S'weeps'
p4193
sI4193
S'reduction'
p4194
sI4194
Vdisapproval
p4195
sI4195
Vnoticed
p4196
sI4196
Vcontinental
p4197
sI4197
Vspread
p4198
sI4198
S'figuratively'
p4199
sI4199
Vinner
p4200
sI4200
S'terminates'
p4201
sI4201
S'biggest'
p4202
sI4202
S'unresponsive'
p4203
sI4203
Vdesecrate
p4204
sI4204
S'naturally'
p4205
sI4205
S'rhythmic'
p4206
sI4206
S'fiscal'
p4207
sI4207
S'prophetic'
p4208
sI4208
S'inaction'
p4209
sI4209
Vcollective
p4210
sI4210
Vunwrap
p4211
sI4211
S'believe'
p4212
sI4212
S'blaming'
p4213
sI4213
S'subjective'
p4214
sI4214
Vinsured
p4215
sI4215
S'lowered'
p4216
sI4216
Vgain
p4217
sI4217
Vflexible
p4218
sI4218
S'dressed'
p4219
sI4219
S'highest'
p4220
sI4220
S'entered'
p4221
sI4221
S'partially'
p4222
sI4222
S'boarding'
p4223
sI4223
Vupwardly
p4224
sI4224
S'absence'
p4225
sI4225
S'instructive'
p4226
sI4226
S'relents'
p4227
sI4227
Vunadaptability
p4228
sI4228
Vofficial
p4229
sI4229
Vrecede
p4230
sI4230
Vsigned
p4231
sI4231
S'imbalances'
p4232
sI4232
S'below'
p4233
sI4233
Vslowly
p4234
sI4234
S'woke'
p4235
sI4235
Venthrone
p4236
sI4236
S'multiculturalism'
p4237
sI4237
Vindiscreetly
p4238
sI4238
S'strengthens'
p4239
sI4239
S'rightly'
p4240
sI4240
S'deaths'
p4241
sI4241
Vdestabilise
p4242
sI4242
Vinadequate
p4243
sI4243
Vmeaningless
p4244
sI4244
S'slowing'
p4245
sI4245
Vunselfishness
p4246
sI4246
S'worthiness'
p4247
sI4247
Vunenlightening
p4248
sI4248
S'highlighted'
p4249
sI4249
Vwell-defined
p4250
sI4250
Vgoodness
p4251
sI4251
Vpartly
p4252
sI4252
S'permeability'
p4253
sI4253
S'anaerobic'
p4254
sI4254
S'unintelligible'
p4255
sI4255
S'improving'
p4256
sI4256
S'efficacy'
p4257
sI4257
S'incredible'
p4258
sI4258
S'fortunate'
p4259
sI4259
Vsexual
p4260
sI4260
S'claiming'
p4261
sI4261
S'scholarly'
p4262
sI4262
S'detain'
p4263
sI4263
Vactiveness
p4264
sI4264
Vamateur
p4265
sI4265
S'other'
p4266
sI4266
S'misconceptions'
p4267
sI4267
S'repute'
p4268
sI4268
S'incredibly'
p4269
sI4269
Vnadir
p4270
sI4270
Vunintelligibly
p4271
sI4271
S'illegally'
p4272
sI4272
S'embarked'
p4273
sI4273
S'worker'
p4274
sI4274
S'exothermic'
p4275
sI4275
S'dismantle'
p4276
sI4276
S'unsaturated'
p4277
sI4277
Vthin_person
p4278
sI4278
S'enlargement'
p4279
sI4279
Vimmoderately
p4280
sI4280
S'sped'
p4281
sI4281
S'earthly'
p4282
sI4282
S'rural'
p4283
sI4283
S'inboard'
p4284
sI4284
Vveil
p4285
sI4285
Virrationally
p4286
sI4286
Vimpurity
p4287
sI4287
Vunreasonably
p4288
sI4288
Vunlikeliness
p4289
sI4289
S'clergymen'
p4290
sI4290
Vintentionally
p4291
sI4291
S'atheism'
p4292
sI4292
Vcomplicate
p4293
sI4293
S'uneducated'
p4294
sI4294
S'awake'
p4295
sI4295
S'denies'
p4296
sI4296
S'expands'
p4297
sI4297
S'commencement'
p4298
sI4298
Vuntalented
p4299
sI4299
Vincapability
p4300
s.