c__builtin__
set
p0
((lp1
Vlimited
p2
aS'unscientific'
p3
aS'similarity'
p4
aVinadequacy
p5
aS'assembles'
p6
aVchild
p7
aS'desirable'
p8
aS'all'
p9
aVprefix
p10
aVsleep
p11
aVheliocentric
p12
aVcontroversial
p13
aS'compliance'
p14
aS'woody'
p15
aVadvertently
p16
aVhate
p17
aS'worked'
p18
aS'disobeying'
p19
aS'fronts'
p20
aVmaximally
p21
aS'violate'
p22
aS'granting'
p23
aVeligible
p24
aS'ventral'
p25
aS'stinky'
p26
aS'leeward'
p27
aVinhospitality
p28
aVsupported
p29
aVunsuitableness
p30
aVthinness
p31
aS'unnecessarily'
p32
aS'alphabetic'
p33
aVlord
p34
aS'sorry'
p35
aS'pride'
p36
aS'mushroom'
p37
aVdivergent
p38
aVdenationalise
p39
aVnonresident
p40
aVintense
p41
aS'downstream'
p42
aS'unsold'
p43
aS'aurora'
p44
aVrise
p45
aS'connects'
p46
aS'eugenics'
p47
aVdisobedient
p48
aS'softened'
p49
aVupstream
p50
aVconception
p51
aS'courageous'
p52
aS'bravest'
p53
aS'wooded'
p54
aVirresoluteness
p55
aVinternally
p56
aS'exaggerate'
p57
aS'clothed'
p58
aS'affirm'
p59
aVupload
p60
aS'integrated'
p61
aVadmissible
p62
aS'unrelated'
p63
aS'remoteness'
p64
aVinutility
p65
aS'employees'
p66
aS'abolishing'
p67
aS'unifying'
p68
aS'immunities'
p69
aVstraight
p70
aS'triumph'
p71
aVenjoy
p72
aS'discriminatory'
p73
aVcivility
p74
aS'nigh'
p75
aS'concise'
p76
aS'razed'
p77
aVconsistent
p78
aS'hating'
p79
aS'midsummer'
p80
aVget_off
p81
aVlouden
p82
aS'feasibility'
p83
aVundynamic
p84
aS'likely'
p85
aVpersuade
p86
aS'follow'
p87
aS'consenting'
p88
aVsterile
p89
aS'colourful'
p90
aS'inanimate'
p91
aVeven
p92
aS'established'
p93
aS'oldest'
p94
aVinelegance
p95
aS'unlisted'
p96
aVincompatible
p97
aS'declassified'
p98
aS'unborn'
p99
aVdesynchronizing
p100
aS'assembled'
p101
aVunpreventable
p102
aVunwholesome
p103
aVunskilled
p104
aS'irrevocable'
p105
aS'establishes'
p106
aS'new'
p107
aVnet
p108
aS'increasing'
p109
aVever
p110
aVspecialist
p111
aS'buckling'
p112
aVnever
p113
aS'richest'
p114
aVhere
p115
aVinferiority
p116
aVanticlimactic
p117
aVreported
p118
aVasymmetry
p119
aVhumility
p120
aS'shortness'
p121
aVconform_to
p122
aVorthodoxy
p123
aVcontraction
p124
aS'borrowers'
p125
aS'darkness'
p126
aS'cyclical'
p127
aVdaughter
p128
aVinefficiently
p129
aS'clarify'
p130
aVunstableness
p131
aS'smoky'
p132
aVchanged
p133
aVperinatal
p134
aS'foolishness'
p135
aVcredit
p136
aVmonogamous
p137
aS'complicated'
p138
aVextrospective
p139
aS'weakens'
p140
aS'leaved'
p141
aVhydrophobic
p142
aVunseductive
p143
aS'appropriately'
p144
aVsecure
p145
aS'subtracts'
p146
aS'mobility'
p147
aVdiscontinuous
p148
aS'servicemen'
p149
aVinequitable
p150
aS'lengthen'
p151
aS'objectively'
p152
aS'elaborates'
p153
aS'patience'
p154
aVunretentive
p155
aVmoral
p156
aS'romantically'
p157
aS'civilly'
p158
aS'linearly'
p159
aS'disappearances'
p160
aS'stabilized'
p161
aS'insecurity'
p162
aVunrighteousness
p163
aS'negative'
p164
aS'nationalized'
p165
aS'lessening'
p166
aVatonality
p167
aVoverhead
p168
aVcalm
p169
aS'leaky'
p170
aS'type'
p171
aS'females'
p172
aVholy
p173
aS'relax'
p174
aS'successful'
p175
aVdissimilitude
p176
aS'demoted'
p177
aS'aware'
p178
aS'deciduous'
p179
aVreversible
p180
aVadult
p181
aVunstrap
p182
aVlawlessly
p183
aS'continual'
p184
aVorganic
p185
aVhold
p186
aVincognizance
p187
aS'slowest'
p188
aS'harnessing'
p189
aS'segregated'
p190
aS'abundance'
p191
aVflora
p192
aS'locked'
p193
aS'cheapest'
p194
aS'defuse'
p195
aS'refusing'
p196
aS'immutable'
p197
aVpay_up
p198
aS'transparency'
p199
aS'concepts'
p200
aS'criticizing'
p201
aS'elegantly'
p202
aS'centralization'
p203
aS'addictive'
p204
aS'loosen'
p205
aS'unmarked'
p206
aS'joyous'
p207
aS'unjust'
p208
aS'preserving'
p209
aVassent
p210
aS'heartless'
p211
aVpowerfulness
p212
aS'certifications'
p213
aS'fronting'
p214
aS'caution'
p215
aVuntruthful
p216
aS'validated'
p217
aS'attract'
p218
aS'looser'
p219
aS'unforgettable'
p220
aValienable
p221
aVend
p222
aS'intoxicated'
p223
aS'enquiry'
p224
aVimprecision
p225
aS'drying'
p226
aS'grammatically'
p227
aS'disappear'
p228
aS'significance'
p229
aVanswer
p230
aVordinary
p231
aS'ancestor'
p232
aS'truthful'
p233
aVactivation
p234
aVclassify
p235
aS'retreating'
p236
aVlegless
p237
aS'prohibits'
p238
aS'commencing'
p239
aVuselessness
p240
aVminority
p241
aVbeauty
p242
aVdisassemble
p243
aVunfitness
p244
aVinessential
p245
aS'loyalty'
p246
aS'outlawed'
p247
aS'violates'
p248
aS'modest'
p249
aVunangry
p250
aVungracefully
p251
aS'involvement'
p252
aVcoarsely
p253
aS'minimizes'
p254
aVunselfish
p255
aVantonym
p256
aS'types'
p257
aS'unfamiliarity'
p258
aVinactivity
p259
aS'diminishes'
p260
aVeffective
p261
aS'attracts'
p262
aS'impotence'
p263
aS'descends'
p264
aS'fictional'
p265
aS'capitalism'
p266
aVplay_down
p267
aS'complexity'
p268
aS'nascent'
p269
aVgreen
p270
aVultimate
p271
aVenter
p272
aS'uninsured'
p273
aVpreventive
p274
aVdemocratic
p275
aS'infertile'
p276
aVdestructive
p277
aVdeterminate
p278
aS'modesty'
p279
aVnontaxable
p280
aS'rudely'
p281
aVshorten
p282
aS'govern'
p283
aS'inconclusive'
p284
aS'undetected'
p285
aVproportionate
p286
aS'synonyms'
p287
aS'fortify'
p288
aVresponsive
p289
aS'rewarded'
p290
aS'partisans'
p291
aS'wrought'
p292
aVsuffix
p293
aS'difference'
p294
aS'respectability'
p295
aS'directional'
p296
aVpersonal
p297
aVregress
p298
aS'blackened'
p299
aVbetter
p300
aVimplausibility
p301
aS'narrowest'
p302
aVcomplex
p303
aS'understated'
p304
aS'distal'
p305
aS'nobles'
p306
aS'hidden'
p307
aS'easier'
p308
aVillegitimately
p309
aVmaximal
p310
aVincongruous
p311
aVaffected
p312
aS'woken'
p313
aVimpermeability
p314
aS'enrich'
p315
aVsafe
p316
aVdifferentiated
p317
aVbreak
p318
aS'esteemed'
p319
aVcolourless
p320
aS'clogging'
p321
aVillegitimacy
p322
aS'multidimensional'
p323
aS'undeveloped'
p324
aS'carelessness'
p325
aS'saddened'
p326
aS'unregistered'
p327
aS'ingested'
p328
aS'brightness'
p329
aS'reasonably'
p330
aVdemerit
p331
aVpoor_people
p332
aVproperness
p333
aS'unnoticed'
p334
aS'victories'
p335
aVvictory
p336
aS'reasonable'
p337
aS'fitness'
p338
aS'went'
p339
aS'loyalties'
p340
aVnoncompliance
p341
aS'associative'
p342
aVpowerlessness
p343
aS'preceded'
p344
aS'financial'
p345
aVweightless
p346
aVinnocent
p347
aS'parasites'
p348
aS'arrives'
p349
aS'depositing'
p350
aS'precedes'
p351
aS'forgot'
p352
aS'ameliorate'
p353
aS'dawn'
p354
aS'comedies'
p355
aVnonexistence
p356
aVdepress
p357
aVdisrespectfully
p358
aS'unbound'
p359
aS'unholy'
p360
aVrestricted
p361
aS'hooked'
p362
aS'integrative'
p363
aS'strangers'
p364
aS'forte'
p365
aS'debit'
p366
aVheavenly
p367
aS'disagreements'
p368
aVungregarious
p369
aVlinear
p370
aVcolorless
p371
aVanalphabetic
p372
aVfree
p373
aS'differing'
p374
aVsensory
p375
aS'unconvinced'
p376
aVnecessarily
p377
aS'homologous'
p378
aS'corrects'
p379
aS'enlightened'
p380
aS'lineal'
p381
aVunworldly
p382
aS'incorporates'
p383
aS'unauthorised'
p384
aS'consciousness'
p385
aS'inexpensive'
p386
aS'correctness'
p387
aVdescriptive
p388
aS'tolerant'
p389
aS'patriarchal'
p390
aS'smokers'
p391
aS'incorporated'
p392
aVineffectively
p393
aS'loudness'
p394
aVbroken
p395
aS'loud'
p396
aS'truthfulness'
p397
aVorganize
p398
aS'attractions'
p399
aS'synonymous'
p400
aVdistributary
p401
aS'trusting'
p402
aVlarboard
p403
aVlovable
p404
aS'synthesize'
p405
aVinharmonious
p406
aVtolerably
p407
aS'awoke'
p408
aS'palpable'
p409
aVdisembark
p410
aS'clarity'
p411
aS'caloric'
p412
aS'encodes'
p413
aVnonrandom
p414
aVseamed
p415
aS'activities'
p416
aVunrepeatable
p417
aVdissimilarity
p418
aS'defaulting'
p419
aS'indeterminate'
p420
aS'equilibria'
p421
aS'blamed'
p422
aVcentripetal
p423
aS'needed'
p424
aS'confirming'
p425
aVlisted
p426
aVinconvenient
p427
aVindecisively
p428
aS'unbroken'
p429
aS'inflow'
p430
aS'consented'
p431
aVurban
p432
aVdecentralize
p433
aVindiscreet
p434
aS'asset'
p435
aS'happily'
p436
aS'esoteric'
p437
aVdisloyal
p438
aS'rejected'
p439
aS'onshore'
p440
aVunmindfulness
p441
aS'repeatable'
p442
aS'predictable'
p443
aS'defaulted'
p444
aS'wasted'
p445
aS'requisite'
p446
aVnonpartisan
p447
aVdesynchronise
p448
aS'finitely'
p449
aVbadness
p450
aS'recto'
p451
aS'elegant'
p452
aVdivisible
p453
aS'conforms'
p454
aVoutlaw
p455
aS'legalize'
p456
aS'enabled'
p457
aS'omnivorous'
p458
aS'attributable'
p459
aVidle
p460
aVfemaleness
p461
aS'guilt'
p462
aS'historical'
p463
aS'enables'
p464
aS'powers'
p465
aS'colonizing'
p466
aS'unintended'
p467
aS'forfeited'
p468
aVwillingness
p469
aS'respecting'
p470
aVunchaste
p471
aVpessimism
p472
aS'elevating'
p473
aS'untrained'
p474
aVantagonistic
p475
aS'enchanted'
p476
aVpessimist
p477
aVlumper
p478
aS'increment'
p479
aS'rotors'
p480
aS'unaffected'
p481
aS'leafy'
p482
aVunfasten
p483
aS'praising'
p484
aS'quieter'
p485
aS'strength'
p486
aS'wholesome'
p487
aS'reactive'
p488
aVharmless
p489
aS'convenient'
p490
aVlatter
p491
aS'responsible'
p492
aVdevolution
p493
aS'impotent'
p494
aS'upholding'
p495
aS'toothed'
p496
aS'photosynthetic'
p497
aVdisunify
p498
aS'responsibly'
p499
aS'essential'
p500
aS'effectiveness'
p501
aVimprudent
p502
aS'unoccupied'
p503
aS'disembarking'
p504
aS'starved'
p505
aVtimidity
p506
aVunmindful
p507
aS'diminishing'
p508
aVrepatriate
p509
aS'simplify'
p510
aS'immediacy'
p511
aVdisenfranchisement
p512
aS'imported'
p513
aS'colonize'
p514
aS'disarmed'
p515
aVunknowingly
p516
aS'morality'
p517
aVunconvincingly
p518
aS'mobilised'
p519
aS'escalates'
p520
aS'classicist'
p521
aVworsen
p522
aVorderly
p523
aS'reputation'
p524
aS'aunt'
p525
aS'inaccuracies'
p526
aS'unfriendly'
p527
aS'weakest'
p528
aS'purged'
p529
aS'came'
p530
aS'classicism'
p531
aS'discontent'
p532
aS'inflationary'
p533
aS'departing'
p534
aS'reductions'
p535
aVqueen
p536
aVambiguously
p537
aVending
p538
aS'embarking'
p539
aVsoluble
p540
aS'abilities'
p541
aS'unconditional'
p542
aS'respectfully'
p543
aS'synergistic'
p544
aS'falsehoods'
p545
aVnephew
p546
aS'expediency'
p547
aVattend_to
p548
aS'sunsets'
p549
aS'resisting'
p550
aS'porosity'
p551
aVstraight_line
p552
aVgrassless
p553
aS'dynamical'
p554
aVlayman
p555
aS'elucidated'
p556
aVupstairs
p557
aVjuiceless
p558
aS'rich'
p559
aVintegrate
p560
aVsubhuman
p561
aS'adequate'
p562
aVdullness
p563
aS'nullified'
p564
aS'darken'
p565
aS'borrowed'
p566
aS'exports'
p567
aVabove
p568
aVcolorful
p569
aS'criticizes'
p570
aVobjective
p571
aS'altruistic'
p572
aS'vowels'
p573
aS'scalable'
p574
aS'simpler'
p575
aS'criticized'
p576
aS'shutting'
p577
aS'sequestration'
p578
aVborrower
p579
aS'downtime'
p580
aVtrust
p581
aS'impractical'
p582
aVnasty
p583
aVunemotionally
p584
aS'considerate'
p585
aVaestivate
p586
aS'infrequent'
p587
aS'textbooks'
p588
aS'officially'
p589
aVegoism
p590
aS'bad'
p591
aVsoftly
p592
aVunsensational
p593
aS'wronged'
p594
aVincomprehension
p595
aS'sanctioning'
p596
aS'freshwater'
p597
aS'boarded'
p598
aVfragrant
p599
aS'unworthy'
p600
aS'comprehensively'
p601
aVfair
p602
aS'clarified'
p603
aVgenerally
p604
aS'applauded'
p605
aS'resist'
p606
aVsubartesian
p607
aVnontraditional
p608
aVfail
p609
aVsporadic
p610
aVnocturnal
p611
aVsofthearted
p612
aS'incorporating'
p613
aS'clarifies'
p614
aS'embarks'
p615
aS'capacity'
p616
aS'inappropriate'
p617
aVafloat
p618
aS'artificial'
p619
aVpaternal
p620
aS'symmetric'
p621
aVimplicit
p622
aVunable
p623
aS'alignment'
p624
aS'cooperation'
p625
aS'hopefully'
p626
aS'conductive'
p627
aS'drawn'
p628
aVhydrokinetic
p629
aS'polygamous'
p630
aS'unprofessional'
p631
aVlethargic
p632
aS'indecisive'
p633
aS'accord'
p634
aS'replaceable'
p635
aVdisagreeableness
p636
aVwanted
p637
aVundependably
p638
aS'packaged'
p639
aS'weary'
p640
aVunfold
p641
aVcontamination
p642
aVdowngrade
p643
aVcarnivorous
p644
aVundependable
p645
aVuncreative
p646
aS'downgraded'
p647
aS'improve'
p648
aVfaced
p649
aS'disorderly'
p650
aS'corroborated'
p651
aVagonist
p652
aS'favourable'
p653
aVunregretful
p654
aS'uncertainty'
p655
aS'disengage'
p656
aVenthrone
p657
aVplanned
p658
aVrich_people
p659
aS'disappears'
p660
aS'con'
p661
aS'forbade'
p662
aS'widen'
p663
aS'abbreviate'
p664
aS'honouring'
p665
aVirresponsible
p666
aS'moving'
p667
aS'nonconformist'
p668
aS'likeable'
p669
aS'unprotected'
p670
aS'deciphering'
p671
aS'comprehension'
p672
aS'applicability'
p673
aS'wider'
p674
aS'symmetries'
p675
aVpassionless
p676
aS'gratitude'
p677
aS'broadening'
p678
aS'petty'
p679
aS'immobile'
p680
aVunhappily
p681
aS'puts'
p682
aVmobilization
p683
aVunion
p684
aS'mindfulness'
p685
aS'commenced'
p686
aS'criticised'
p687
aS'erect'
p688
aS'particulars'
p689
aS'confident'
p690
aVmuch
p691
aVinterest
p692
aVexpected
p693
aVdeliberately
p694
aS'criticises'
p695
aS'tallest'
p696
aVincompetent
p697
aVunsupportive
p698
aVdry
p699
aS'deeper'
p700
aS'efficacy'
p701
aS'attacked'
p702
aVinattention
p703
aVimpermanence
p704
aS'uncommon'
p705
aS'relevance'
p706
aS'coherent'
p707
aVimmunocompetence
p708
aS'doubts'
p709
aS'niece'
p710
aS'downplay'
p711
aS'reassuring'
p712
aValtered
p713
aVcensored
p714
aVdisarrange
p715
aS'gracious'
p716
aVunpopular
p717
aS'righteous'
p718
aS'loosened'
p719
aVdeodorize
p720
aS'publicly'
p721
aVnonphotosynthetic
p722
aVilliteracy
p723
aVsuitably
p724
aS'lessen'
p725
aS'newest'
p726
aS'employ'
p727
aS'ugly'
p728
aVunintrusive
p729
aS'unloading'
p730
aS'wildest'
p731
aVbalance
p732
aVprecede
p733
aS'launched'
p734
aS'enforces'
p735
aS'pessimistic'
p736
aS'cons'
p737
aS'provocative'
p738
aS'cyclones'
p739
aVrecuperate
p740
aVunicameral
p741
aVnoninheritable
p742
aS'submissive'
p743
aVdefeated
p744
aVconditioned
p745
aS'obeying'
p746
aVpenetrable
p747
aS'exterior'
p748
aVunenterprising
p749
aVnoncompetitive
p750
aS'trusted'
p751
aS'overstated'
p752
aS'confirmed'
p753
aVdescent
p754
aVlarge
p755
aS'psychopathy'
p756
aS'fatal'
p757
aVundesirous
p758
aVdescend
p759
aVunfortunate
p760
aVincorrectly
p761
aS'avoids'
p762
aS'demotion'
p763
aS'capacities'
p764
aS'fairly'
p765
aS'boiled'
p766
aS'inadvertently'
p767
aVrotor
p768
aS'progressed'
p769
aVpermit
p770
aS'closings'
p771
aS'monotonic'
p772
aVaction
p773
aVfuse
p774
aVrehabilitative
p775
aS'selfless'
p776
aS'energetic'
p777
aS'overt'
p778
aS'accelerating'
p779
aS'minimally'
p780
aS'specialize'
p781
aS'maximizing'
p782
aVunreactive
p783
aS'auspicious'
p784
aS'noblewoman'
p785
aS'unconditionally'
p786
aS'forceful'
p787
aVhumble
p788
aS'uploading'
p789
aS'smoker'
p790
aVapprobation
p791
aVunadventurous
p792
aVincapable
p793
aVmother
p794
aS'quantitative'
p795
aVuncivilly
p796
aS'fittest'
p797
aS'maxima'
p798
aS'unified'
p799
aVbackground
p800
aS'just'
p801
aVunemployment
p802
aS'yea'
p803
aVdownwards
p804
aS'warmest'
p805
aVunfair
p806
aVinelasticity
p807
aS'homogeneity'
p808
aVassigned
p809
aVunattributable
p810
aS'unassigned'
p811
aVfullness
p812
aS'uncooperative'
p813
aS'breaching'
p814
aS'depart'
p815
aS'yes'
p816
aS'succeeding'
p817
aVdivide
p818
aS'adding'
p819
aS'enters'
p820
aVinfinitely
p821
aS'similarities'
p822
aS'ease'
p823
aS'elaborated'
p824
aS'insubordination'
p825
aS'passive'
p826
aS'criticise'
p827
aVshout
p828
aVinconclusively
p829
aS'obedient'
p830
aS'justices'
p831
aVcowardly
p832
aVoffside
p833
aS'ascents'
p834
aS'hairless'
p835
aS'lenders'
p836
aVtolerable
p837
aVnonradioactive
p838
aVsoberness
p839
aS'insensitive'
p840
aS'boxed'
p841
aS'involuntary'
p842
aS'infield'
p843
aVdisagreement
p844
aVinaptitude
p845
aS'visibly'
p846
aS'unequivocally'
p847
aVpossibly
p848
aS'discreet'
p849
aS'descending'
p850
aVbirth
p851
aS'cluttering'
p852
aS'sanitary'
p853
aS'erected'
p854
aS'advanced'
p855
aVdisadvantage
p856
aS'sorrows'
p857
aS'strengths'
p858
aS'intertwined'
p859
aVimpolitic
p860
aS'dishonest'
p861
aVisotropy
p862
aS'specific'
p863
aVinformative
p864
aS'disillusioned'
p865
aS'night'
p866
aS'evolutions'
p867
aVsecurity
p868
aS'toughest'
p869
aS'occupants'
p870
aS'cooled'
p871
aS'cowardice'
p872
aVright
p873
aVold
p874
aS'aptitude'
p875
aVflatter
p876
aS'successfully'
p877
aS'proportionally'
p878
aS'unnecessary'
p879
aVborn
p880
aVnonmember
p881
aVinsincerely
p882
aS'warring'
p883
aS'straightening'
p884
aVanimate
p885
aS'repelling'
p886
aS'competency'
p887
aVnobleman
p888
aVignore
p889
aVunfit
p890
aVunambitious
p891
aS'raced'
p892
aS'establish'
p893
aVnormal
p894
aS'daytime'
p895
aVnoxious
p896
aVnonthermal
p897
aS'disheartened'
p898
aS'honoured'
p899
aS'denied'
p900
aVintolerant
p901
aS'spiny'
p902
aS'helpfully'
p903
aVsubordination
p904
aVmental_health
p905
aS'participation'
p906
aS'palatable'
p907
aS'knew'
p908
aS'algorithmic'
p909
aS'memorably'
p910
aS'minimization'
p911
aVdeflation
p912
aS'elucidate'
p913
aS'arbitrary'
p914
aVdraftee
p915
aS'constructive'
p916
aS'purest'
p917
aVhereditarianism
p918
aS'stylish'
p919
aS'losing'
p920
aS'descendent'
p921
aS'permitted'
p922
aS'dead'
p923
aS'wept'
p924
aVhard
p925
aS'aunts'
p926
aS'inedible'
p927
aS'conceal'
p928
aS'citizens'
p929
aS'accepts'
p930
aVunrespectable
p931
aVtrustworthy
p932
aS'undocumented'
p933
aS'plus'
p934
aS'lacked'
p935
aVimpartiality
p936
aVpresence
p937
aVcivil
p938
aS'visible'
p939
aS'delighted'
p940
aS'naturalized'
p941
aVson
p942
aVdown
p943
aS'thankful'
p944
aS'beings'
p945
aVinapplicability
p946
aVcoastal
p947
aS'dissenting'
p948
aVeasy
p949
aS'intermarriage'
p950
aS'defendants'
p951
aVunsexy
p952
aS'yin'
p953
aS'unambiguous'
p954
aVinfidelity
p955
aS'rely'
p956
aS'cleared'
p957
aVcompression
p958
aS'indispensable'
p959
aS'substantiate'
p960
aS'unfocused'
p961
aS'corporeal'
p962
aVtame
p963
aS'stuck'
p964
aVauthorized
p965
aS'accords'
p966
aVuntie
p967
aVunpretentious
p968
aVwar
p969
aS'purposely'
p970
aS'happy'
p971
aS'questionable'
p972
aS'starve'
p973
aVhead
p974
aS'gaseous'
p975
aVunfree
p976
aVimmorality
p977
aS'understandably'
p978
aS'differences'
p979
aS'conclusively'
p980
aVunmanly
p981
aVfore
p982
aVback
p983
aS'disembarked'
p984
aVfailure
p985
aVheat
p986
aVuncle
p987
aS'catalyst'
p988
aVindecorousness
p989
aS'radioactive'
p990
aVtriclinic
p991
aVtrue
p992
aS'deepest'
p993
aS'subtracted'
p994
aVcontinuance
p995
aS'handily'
p996
aVnoncomprehensively
p997
aS'veiled'
p998
aS'emboldened'
p999
aS'excommunicated'
p1000
aS'inside'
p1001
aS'myopia'
p1002
aVtrapezium
p1003
aS'maximum'
p1004
aS'different'
p1005
aS'follows'
p1006
aS'generosity'
p1007
aS'simplifying'
p1008
aVcentralise
p1009
aVemotional
p1010
aS'plaintiffs'
p1011
aS'occupiers'
p1012
aVdisreputability
p1013
aVaccelerate
p1014
aS'juvenile'
p1015
aS'strengthening'
p1016
aS'hotter'
p1017
aVbelievably
p1018
aS'inclusive'
p1019
aVcovert
p1020
aVwetness
p1021
aS'specialities'
p1022
aS'decrypt'
p1023
aS'textbook'
p1024
aVcultivated_plant
p1025
aS'selfishness'
p1026
aVsaltwater
p1027
aS'believable'
p1028
aVhumorlessly
p1029
aVbore
p1030
aS'physical'
p1031
aS'willingly'
p1032
aVfaithful
p1033
aVdying
p1034
aVno
p1035
aS'agreeing'
p1036
aVleafless
p1037
aS'handmade'
p1038
aS'vanishes'
p1039
aVtopped
p1040
aS'power'
p1041
aVgrammatical
p1042
aVinterested
p1043
aVmatriarchal
p1044
aS'ambitious'
p1045
aS'heterozygous'
p1046
aS'unwilling'
p1047
aS'emigrating'
p1048
aS'naive'
p1049
aS'unbalanced'
p1050
aS'evergreen'
p1051
aVungracious
p1052
aS'permitting'
p1053
aS'brothers'
p1054
aS'tasteful'
p1055
aS'exempted'
p1056
aS'constructs'
p1057
aS'preceding'
p1058
aVuninterestingly
p1059
aVconvincing
p1060
aS'polite'
p1061
aVpartiality
p1062
aS'perigee'
p1063
aVnondriver
p1064
aVonymous
p1065
aS'invested'
p1066
aS'exported'
p1067
aVfruitlessly
p1068
aS'participations'
p1069
aVunexpansive
p1070
aVunmelodious
p1071
aS'unlocking'
p1072
aS'died'
p1073
aS'congested'
p1074
aS'pros'
p1075
aS'fastened'
p1076
aS'faster'
p1077
aVmale_parent
p1078
aS'attended'
p1079
aS'necessitates'
p1080
aS'cohesion'
p1081
aVaerobic
p1082
aS'loyal'
p1083
aVwarm
p1084
aVsimplicity
p1085
aVpush
p1086
aVserious
p1087
aS'necessitated'
p1088
aS'backward'
p1089
aS'prospective'
p1090
aVunprincipled
p1091
aVdecelerate
p1092
aVanglican
p1093
aS'consonants'
p1094
aS'concept'
p1095
aS'discreetly'
p1096
aVchain
p1097
aVlend_oneself
p1098
aVindecently
p1099
aS'rudeness'
p1100
aS'permeable'
p1101
aVobviate
p1102
aVnonviolent
p1103
aVdisrepute
p1104
aS'manages'
p1105
aS'burdened'
p1106
aS'grateful'
p1107
aS'functioned'
p1108
aVremarkably
p1109
aVabundant
p1110
aS'interlaced'
p1111
aS'adoptive'
p1112
aVunlikeness
p1113
aVunprotective
p1114
aS'essentials'
p1115
aS'timbered'
p1116
aVunpack
p1117
aS'inland'
p1118
aS'certification'
p1119
aS'father'
p1120
aS'disapproves'
p1121
aVreparable
p1122
aVunpleasant
p1123
aS'dissatisfied'
p1124
aVglad
p1125
aVweakening
p1126
aVdisorient
p1127
aS'bests'
p1128
aS'stabilizing'
p1129
aVanalogous
p1130
aVnonassociative
p1131
aVunburden
p1132
aS'tenacious'
p1133
aS'downloading'
p1134
aVupriver
p1135
aVbroadly
p1136
aS'permissive'
p1137
aVincongruousness
p1138
aS'synchronous'
p1139
aVeducated
p1140
aS'unfamiliar'
p1141
aVunfriendliness
p1142
aVliability
p1143
aS'embark'
p1144
aS'hardened'
p1145
aVuneventful
p1146
aVconvict
p1147
aS'fullest'
p1148
aS'pious'
p1149
aVcool
p1150
aVstiffen
p1151
aS'impressive'
p1152
aVlevel
p1153
aS'unify'
p1154
aS'anisotropy'
p1155
aVbrother
p1156
aVlosings
p1157
aS'skewed'
p1158
aVleave
p1159
aVsolved
p1160
aVinauspicious
p1161
aVuntruthfulness
p1162
aS'disqualify'
p1163
aS'woven'
p1164
aVunaware
p1165
aS'attracting'
p1166
aVfall_short_of
p1167
aVbrave
p1168
aS'legalized'
p1169
aVinsignificant
p1170
aVmaximization
p1171
aS'measurable'
p1172
aVagitate
p1173
aS'coalition'
p1174
aS'lengthened'
p1175
aS'widened'
p1176
aS'slowed'
p1177
aS'dried'
p1178
aVscarcity
p1179
aS'unconnected'
p1180
aS'noticeably'
p1181
aVhyperopia
p1182
aVdecriminalize
p1183
aVcurse
p1184
aVappear
p1185
aS'psychotropic'
p1186
aVinfelicity
p1187
aS'foregoing'
p1188
aS'agrees'
p1189
aVnearness
p1190
aVtheism
p1191
aS'unrestricted'
p1192
aS'commensurate'
p1193
aS'unintentionally'
p1194
aVhairy
p1195
aVcollateral
p1196
aVunsure
p1197
aS'sweeter'
p1198
aS'climbs'
p1199
aS'honour'
p1200
aVinvoluntarily
p1201
aVdisintegrative
p1202
aS'whiteness'
p1203
aVdisclaim
p1204
aS'downloaded'
p1205
aS'femininity'
p1206
aVupgrade
p1207
aVingenuous
p1208
aS'decipher'
p1209
aS'tallying'
p1210
aS'disappeared'
p1211
aVchange
p1212
aVunkind
p1213
aS'boy'
p1214
aVbreathing
p1215
aS'noticeable'
p1216
aVimpatiently
p1217
aVhealthy
p1218
aS'spontaneous'
p1219
aS'guilty'
p1220
aS'commonly'
p1221
aS'exiting'
p1222
aS'obligatory'
p1223
aS'sharpening'
p1224
aS'women'
p1225
aVineffective
p1226
aS'descended'
p1227
aVboo
p1228
aS'usually'
p1229
aS'hospitality'
p1230
aS'conveniently'
p1231
aS'influx'
p1232
aVgracelessly
p1233
aVunrenewable
p1234
aVuseful
p1235
aS'melodious'
p1236
aS'congruence'
p1237
aVmarked
p1238
aS'sincerely'
p1239
aS'flexibility'
p1240
aS'licensing'
p1241
aS'translational'
p1242
aVrarely
p1243
aVstingy
p1244
aS'unilateral'
p1245
aVpositiveness
p1246
aVwealth
p1247
aS'driest'
p1248
aS'perished'
p1249
aS'angry'
p1250
aS'uncritical'
p1251
aS'coldest'
p1252
aS'centrality'
p1253
aS'insides'
p1254
aVsisterly
p1255
aS'upheld'
p1256
aVopposed
p1257
aVencode
p1258
aS'black'
p1259
aVsharpen
p1260
aVsymmetrical
p1261
aVtheoretical
p1262
aS'wicked'
p1263
aVnonconductive
p1264
aVstinginess
p1265
aS'diurnal'
p1266
aS'acceptable'
p1267
aVmaximise
p1268
aVrefrain
p1269
aS'approving'
p1270
aS'dystopia'
p1271
aS'withdrawn'
p1272
aS'degrade'
p1273
aVacceptably
p1274
aS'sundown'
p1275
aVmisconception
p1276
aVintemperance
p1277
aS'easiest'
p1278
aVedible
p1279
aS'sanctified'
p1280
aS'defeats'
p1281
aS'fortified'
p1282
aVmodified
p1283
aS'believes'
p1284
aS'hardest'
p1285
aS'harmonious'
p1286
aVmortality
p1287
aS'believed'
p1288
aVnonfictional
p1289
aS'fauna'
p1290
aVarrive
p1291
aS'thicknesses'
p1292
aS'slightest'
p1293
aVimpracticality
p1294
aS'admired'
p1295
aS'monoclinic'
p1296
aVtrade_edition
p1297
aS'grassy'
p1298
aS'recalled'
p1299
aS'expanding'
p1300
aS'licensed'
p1301
aVromanticism
p1302
aVinexperience
p1303
aVdisbelieve
p1304
aS'slows'
p1305
aVromanticist
p1306
aVimpermeable
p1307
aS'admires'
p1308
aVnonintervention
p1309
aVinvariability
p1310
aS'distinguishable'
p1311
aS'productive'
p1312
aS'septic'
p1313
aVfortunately
p1314
aS'centrally'
p1315
aVdecolonize
p1316
aS'sudden'
p1317
aVmeager
p1318
aS'grosser'
p1319
aVunrealistically
p1320
aS'depressions'
p1321
aS'advancing'
p1322
aVpure
p1323
aS'irreverent'
p1324
aS'persuasion'
p1325
aS'divider'
p1326
aS'emptiness'
p1327
aS'suffer'
p1328
aVeffortful
p1329
aS'escalate'
p1330
aS'bidirectional'
p1331
aVsour
p1332
aS'southern'
p1333
aS'unobtrusive'
p1334
aS'convincingly'
p1335
aVrehabilitate
p1336
aVcephalic
p1337
aVuppercase
p1338
aS'supra'
p1339
aVnonalignment
p1340
aS'prides'
p1341
aS'disqualified'
p1342
aS'unbelievably'
p1343
aVman
p1344
aS'temperate'
p1345
aS'supersonic'
p1346
aVnatural
p1347
aVremember
p1348
aVliquid
p1349
aS'futures'
p1350
aS'explicit'
p1351
aS'ordinarily'
p1352
aS'compressing'
p1353
aS'complaining'
p1354
aS'accelerated'
p1355
aVpatronise
p1356
aVnoncrystalline
p1357
aS'invests'
p1358
aS'pulled'
p1359
aVheedlessness
p1360
aS'worsens'
p1361
aVsuperscript
p1362
aVexclusive
p1363
aS'innocuous'
p1364
aVunfavorably
p1365
aVnonpayment
p1366
aVgradual
p1367
aVpointed
p1368
aVunacceptable
p1369
aVstability
p1370
aS'ended'
p1371
aVnon-involvement
p1372
aVindecency
p1373
aS'upgrading'
p1374
aVcounterclockwise
p1375
aS'affirms'
p1376
aS'differs'
p1377
aVcold
p1378
aS'equalling'
p1379
aVirresolute
p1380
aVunconnectedness
p1381
aVconjunct
p1382
aVdisconnect
p1383
aVnonarbitrary
p1384
aS'curly'
p1385
aS'acknowledge'
p1386
aS'interesting'
p1387
aS'specifics'
p1388
aS'sexiest'
p1389
aVhot
p1390
aS'decreases'
p1391
aS'attraction'
p1392
aS'immortality'
p1393
aS'entered'
p1394
aS'antagonist'
p1395
aS'decreased'
p1396
aS'aliens'
p1397
aS'inefficiency'
p1398
aS'modestly'
p1399
aS'unplanned'
p1400
aS'civilian'
p1401
aVunhurriedly
p1402
aS'smarter'
p1403
aS'sweetened'
p1404
aS'insomnia'
p1405
aS'joys'
p1406
aS'sarcastic'
p1407
aVchromatic
p1408
aS'toxic'
p1409
aS'appropriateness'
p1410
aVqualified
p1411
aVunimpressive
p1412
aVmutable
p1413
aS'arriving'
p1414
aVunsusceptible
p1415
aS'balances'
p1416
aVunpredictability
p1417
aS'matched'
p1418
aVunfruitful
p1419
aVsusceptibility
p1420
aS'shouted'
p1421
aS'equality'
p1422
aS'exportation'
p1423
aS'stabilize'
p1424
aS'respectable'
p1425
aS'suffixed'
p1426
aS'materialized'
p1427
aS'sensibilities'
p1428
aS'ceremonially'
p1429
aS'establishing'
p1430
aVdysphoria
p1431
aS'synchronize'
p1432
aS'finely'
p1433
aS'careless'
p1434
aVoffshore
p1435
aS'heresies'
p1436
aS'instability'
p1437
aS'entirely'
p1438
aS'repaired'
p1439
aS'busiest'
p1440
aS'weighted'
p1441
aVunproductive
p1442
aS'blacked'
p1443
aS'unqualified'
p1444
aS'growths'
p1445
aS'abnormal'
p1446
aVborrow
p1447
aVnonfissionable
p1448
aS'balanced'
p1449
aVunlock
p1450
aVunlikelihood
p1451
aS'disappearing'
p1452
aS'begun'
p1453
aVcarelessly
p1454
aVgirl
p1455
aS'avoided'
p1456
aS'adequately'
p1457
aVsunrise
p1458
aVliving
p1459
aS'concur'
p1460
aVaggrade
p1461
aVamateurishly
p1462
aS'emigrate'
p1463
aVfemale_child
p1464
aS'interference'
p1465
aS'hastily'
p1466
aVincrease
p1467
aS'attracted'
p1468
aS'weakened'
p1469
aVinconspicuously
p1470
aVplug_in
p1471
aVprotected
p1472
aS'insecure'
p1473
aS'igniting'
p1474
aS'superiors'
p1475
aS'complicates'
p1476
aS'disintegrated'
p1477
aS'queries'
p1478
aS'incentives'
p1479
aVrecede
p1480
aVpossibility
p1481
aS'minimized'
p1482
aVdisrespect
p1483
aS'releasing'
p1484
aS'advantages'
p1485
aS'bumpy'
p1486
aS'quits'
p1487
aS'prenatal'
p1488
aVinevitable
p1489
aS'forbids'
p1490
aVadvance
p1491
aS'backside'
p1492
aS'lossless'
p1493
aS'wrong'
p1494
aS'wrongs'
p1495
aS'unpaid'
p1496
aS'impure'
p1497
aVdisincarnate
p1498
aVundesirable
p1499
aVunholiness
p1500
aVpromotion
p1501
aS'discontinued'
p1502
aVfrequent
p1503
aVillicitly
p1504
aS'simplifies'
p1505
aS'fetched'
p1506
aS'impossibly'
p1507
aS'symmetry'
p1508
aS'conform'
p1509
aS'omitted'
p1510
aVuntwine
p1511
aS'catalysts'
p1512
aS'nativity'
p1513
aVdesynchronization
p1514
aS'temporarily'
p1515
aS'simplified'
p1516
aS'intrastate'
p1517
aVdirectly
p1518
aS'generative'
p1519
aS'sounds'
p1520
aVopen
p1521
aVincompetently
p1522
aS'cheerfully'
p1523
aVlittle
p1524
aS'truthfully'
p1525
aS'meaningful'
p1526
aS'lightened'
p1527
aVinsentient
p1528
aVnon-engagement
p1529
aS'stimulating'
p1530
aVreducible
p1531
aS'legally'
p1532
aVwhite
p1533
aS'violated'
p1534
aVunprofitability
p1535
aVpaved
p1536
aS'elasticity'
p1537
aS'inefficient'
p1538
aS'uninformed'
p1539
aS'asymmetric'
p1540
aS'disapproved'
p1541
aS'continuous'
p1542
aVaccurately
p1543
aS'released'
p1544
aVcriticize
p1545
aVdeceleration
p1546
aVheterologous
p1547
aS'specialists'
p1548
aVdisequilibrium
p1549
aVwide
p1550
aVrightfulness
p1551
aS'bored'
p1552
aS'illegality'
p1553
aVunfortunately
p1554
aS'depressed'
p1555
aVstructured
p1556
aS'require'
p1557
aS'folly'
p1558
aS'optimism'
p1559
aVsquare_shooter
p1560
aVfuture
p1561
aS'hydrostatic'
p1562
aS'optimist'
p1563
aS'merits'
p1564
aVextinguish
p1565
aS'proactive'
p1566
aS'illness'
p1567
aS'legalizing'
p1568
aS'nicer'
p1569
aS'remained'
p1570
aS'acknowledged'
p1571
aVpro
p1572
aS'underestimated'
p1573
aS'invalidated'
p1574
aS'sad'
p1575
aS'inpatient'
p1576
aS'unaltered'
p1577
aVvoiced
p1578
aS'abnormalities'
p1579
aS'insatiable'
p1580
aVoccupied
p1581
aS'dryness'
p1582
aS'deposited'
p1583
aS'exploratory'
p1584
aS'fashionable'
p1585
aVefficient
p1586
aS'employers'
p1587
aS'foreigner'
p1588
aVunsatisfactorily
p1589
aS'converges'
p1590
aS'unlawfully'
p1591
aVunsuitably
p1592
aS'online'
p1593
aS'converged'
p1594
aS'personalized'
p1595
aS'wettest'
p1596
aS'relaxed'
p1597
aS'flattered'
p1598
aVbegin
p1599
aS'sure'
p1600
aVpain
p1601
aS'opposite'
p1602
aS'printable'
p1603
aS'decreasing'
p1604
aVcompress
p1605
aS'clearer'
p1606
aVpaid
p1607
aVinsanity
p1608
aVunkindness
p1609
aVunattractively
p1610
aS'expertly'
p1611
aVmultiply
p1612
aS'upland'
p1613
aVknowingly
p1614
aS'conspicuous'
p1615
aS'inequalities'
p1616
aS'acknowledges'
p1617
aVsynonym
p1618
aVsurprising
p1619
aVnonworker
p1620
aS'proud'
p1621
aS'hungry'
p1622
aS'gracefully'
p1623
aVproperly
p1624
aVsunset
p1625
aS'nuclear'
p1626
aVprofessional
p1627
aS'typically'
p1628
aS'satisfactorily'
p1629
aVprecise
p1630
aVinvariableness
p1631
aVinequity
p1632
aVshow
p1633
aVcheap
p1634
aS'merit'
p1635
aS'elevate'
p1636
aS'bright'
p1637
aS'inconsistent'
p1638
aS'encoded'
p1639
aS'scarce'
p1640
aS'aggressive'
p1641
aS'inshore'
p1642
aVslow
p1643
aVnadir
p1644
aS'stormy'
p1645
aVunprofitableness
p1646
aS'disables'
p1647
aS'considerable'
p1648
aVnonbeing
p1649
aS'explicitly'
p1650
aS'enriched'
p1651
aVunworthiness
p1652
aS'extracellular'
p1653
aS'awareness'
p1654
aVinterstate
p1655
aS'depressing'
p1656
aVdissimilar
p1657
aS'uncles'
p1658
aVnonpregnant
p1659
aS'incivility'
p1660
aVlighten
p1661
aS'geocentric'
p1662
aS'broadest'
p1663
aS'uninvolved'
p1664
aVactive_voice
p1665
aS'unimportant'
p1666
aS'infallible'
p1667
aS'unconsciously'
p1668
aVnonhierarchical
p1669
aS'symmetrically'
p1670
aS'heritable'
p1671
aS'unethical'
p1672
aS'clearest'
p1673
aVimmodesty
p1674
aVdisinherit
p1675
aVde-energise
p1676
aVstoppable
p1677
aS'seldom'
p1678
aVimpolite
p1679
aVstupid
p1680
aS'losers'
p1681
aVnonspatial
p1682
aVuncover
p1683
aVdisparage
p1684
aS'prosecutions'
p1685
aVhusband
p1686
aVsatiate
p1687
aVdeclared
p1688
aS'temperance'
p1689
aS'honesty'
p1690
aVstaleness
p1691
aS'attached'
p1692
aS'unmarried'
p1693
aVmediacy
p1694
aS'connections'
p1695
aVnoncausative
p1696
aS'actively'
p1697
aS'asleep'
p1698
aVunwooded
p1699
aVheavy
p1700
aS'insoluble'
p1701
aVfidelity
p1702
aS'intoxicating'
p1703
aS'conscript'
p1704
aS'meagre'
p1705
aS'satisfying'
p1706
aVvoluntary
p1707
aS'politic'
p1708
aS'managing'
p1709
aS'subsequent'
p1710
aS'definite'
p1711
aS'inhibitors'
p1712
aVatomistic
p1713
aS'legitimacy'
p1714
aVoutside
p1715
aS'downriver'
p1716
aS'fearless'
p1717
aS'reproducible'
p1718
aS'import'
p1719
aVineloquently
p1720
aVimpoliteness
p1721
aS'untrustworthy'
p1722
aS'gathered'
p1723
aVinappropriately
p1724
aS'multiplied'
p1725
aS'congruent'
p1726
aVmature
p1727
aS'parent'
p1728
aVparental
p1729
aS'unlocks'
p1730
aS'approvals'
p1731
aVimmigrate
p1732
aS'pluck'
p1733
aS'gratefully'
p1734
aVconcentrate
p1735
aS'staccato'
p1736
aVcome
p1737
aS'receded'
p1738
aS'immature'
p1739
aS'busting'
p1740
aS'discernible'
p1741
aS'talented'
p1742
aVtractable
p1743
aS'embarkation'
p1744
aS'many'
p1745
aVquiet
p1746
aVcontract
p1747
aS'enabling'
p1748
aS'loudly'
p1749
aVinward
p1750
aVnoncollapsible
p1751
aS'minima'
p1752
aS'constancy'
p1753
aVcontinuation
p1754
aVunsarcastic
p1755
aVunquiet
p1756
aS'inexplicable'
p1757
aS'satisfaction'
p1758
aVinconspicuous
p1759
aVapproval
p1760
aVliberal
p1761
aVextinct
p1762
aS'centralised'
p1763
aVpostnatal
p1764
aS'noisy'
p1765
aVimpropriety
p1766
aS'specializing'
p1767
aS'sensible'
p1768
aS'euphemisms'
p1769
aVconsumptive
p1770
aS'capable'
p1771
aVuncharacteristically
p1772
aS'skew'
p1773
aVinformed
p1774
aS'escalated'
p1775
aS'immunodeficiency'
p1776
aS'relatedness'
p1777
aS'attaching'
p1778
aS'indulgent'
p1779
aS'bequeathed'
p1780
aS'dependable'
p1781
aS'dangers'
p1782
aS'partisanship'
p1783
aS'linguistic'
p1784
aS'featuring'
p1785
aS'capably'
p1786
aS'sensibly'
p1787
aS'peaking'
p1788
aVenable
p1789
aS'colonised'
p1790
aVtasteless
p1791
aVethical
p1792
aVnoncrucial
p1793
aS'blessing'
p1794
aS'layperson'
p1795
aVdisesteem
p1796
aVpolytheism
p1797
aS'dramatic'
p1798
aVwake
p1799
aVexternal
p1800
aS'extant'
p1801
aVcareful
p1802
aVirrelevant
p1803
aS'former'
p1804
aS'sound'
p1805
aVnonaddictive
p1806
aS'juveniles'
p1807
aS'diatonic'
p1808
aVprofane
p1809
aVinelegantly
p1810
aS'prominence'
p1811
aS'straighten'
p1812
aS'premature'
p1813
aVapogee
p1814
aVunorthodoxy
p1815
aS'successes'
p1816
aS'slippery'
p1817
aS'unreported'
p1818
aS'prescriptive'
p1819
aS'awakened'
p1820
aS'coolest'
p1821
aVunsatisfactory
p1822
aVplanar
p1823
aVnonlinguistic
p1824
aS'zenith'
p1825
aVnonresidential
p1826
aS'sincere'
p1827
aVdepersonalize
p1828
aS'sleeping'
p1829
aVmiddle
p1830
aS'unwritten'
p1831
aVclutter
p1832
aVdiabatic
p1833
aS'unreserved'
p1834
aS'decisively'
p1835
aVworry
p1836
aS'expenditures'
p1837
aS'resentful'
p1838
aS'shuts'
p1839
aVunhelpfully
p1840
aS'granted'
p1841
aS'creative'
p1842
aVsame
p1843
aS'denying'
p1844
aS'enquiries'
p1845
aVhipless
p1846
aVweakness
p1847
aS'frequented'
p1848
aVunplayful
p1849
aVlicit
p1850
aVunidimensional
p1851
aVdishonorable
p1852
aS'noble'
p1853
aVinsensibility
p1854
aS'closest'
p1855
aS'sickness'
p1856
aVapplaud
p1857
aS'downloads'
p1858
aS'unflattering'
p1859
aS'births'
p1860
aVdecompress
p1861
aS'disadvantaged'
p1862
aS'annulled'
p1863
aS'decently'
p1864
aS'detached'
p1865
aS'delicate'
p1866
aVvowel
p1867
aS'unmanageable'
p1868
aS'invariance'
p1869
aS'weep'
p1870
aS'totally'
p1871
aVuntruthfully
p1872
aS'renewable'
p1873
aS'enchanting'
p1874
aS'relies'
p1875
aVundependability
p1876
aS'undefined'
p1877
aS'emigrated'
p1878
aVminimize
p1879
aS'purposeful'
p1880
aVconstitutional
p1881
aS'belatedly'
p1882
aS'aphelion'
p1883
aVimmeasurable
p1884
aS'relied'
p1885
aS'inability'
p1886
aS'uninjured'
p1887
aS'synthesised'
p1888
aS'offensively'
p1889
aS'sessile'
p1890
aS'outdoor'
p1891
aVdiffident
p1892
aVcriminalise
p1893
aS'being'
p1894
aS'aunty'
p1895
aS'unconstitutional'
p1896
aS'exaggerating'
p1897
aVvaluable
p1898
aVloosening
p1899
aS'unofficial'
p1900
aS'violent'
p1901
aS'unclear'
p1902
aVinvalid
p1903
aVproximal
p1904
aVunalike
p1905
aVunenlightenment
p1906
aS'slims'
p1907
aVdisreputable
p1908
aVlongness
p1909
aVheuristic
p1910
aS'alphabetical'
p1911
aS'death'
p1912
aS'legitimately'
p1913
aVmonolingual
p1914
aS'insufficient'
p1915
aS'futurity'
p1916
aS'adventurous'
p1917
aS'lender'
p1918
aVdesecrate
p1919
aVdecompression
p1920
aVverso
p1921
aS'heavier'
p1922
aS'joyful'
p1923
aS'disproportionate'
p1924
aVscheduled
p1925
aS'rises'
p1926
aS'narrower'
p1927
aVdiscontinue
p1928
aVnatural_object
p1929
aS'admitting'
p1930
aS'unveil'
p1931
aS'early'
p1932
aS'inflation'
p1933
aS'politely'
p1934
aVdisadvantageous
p1935
aS'boycotted'
p1936
aS'accepted'
p1937
aVlady
p1938
aS'vanished'
p1939
aS'rear'
p1940
aS'sensational'
p1941
aVacute
p1942
aS'sharpened'
p1943
aVconfine
p1944
aVmilitarize
p1945
aS'stranger'
p1946
aS'unrepentant'
p1947
aS'clad'
p1948
aVdiscomposure
p1949
aS'sanity'
p1950
aS'caudal'
p1951
aS'superiority'
p1952
aS'laughing'
p1953
aS'nephews'
p1954
aVunassertive
p1955
aS'voluntarily'
p1956
aS'passionate'
p1957
aS'ascends'
p1958
aVdeconcentrate
p1959
aS'undifferentiated'
p1960
aS'satisfactory'
p1961
aS'collapsible'
p1962
aS'climactic'
p1963
aVmaximize
p1964
aS'veracity'
p1965
aVconditional
p1966
aVascend
p1967
aVcathode
p1968
aVcompetition
p1969
aVmistrust
p1970
aVunrestrictive
p1971
aS'privatization'
p1972
aVspecified
p1973
aS'ascent'
p1974
aS'competences'
p1975
aVinflexibility
p1976
aS'capability'
p1977
aS'watchful'
p1978
aS'insolvency'
p1979
aS'unlocked'
p1980
aS'freer'
p1981
aVunbelief
p1982
aVrecorded
p1983
aS'legal'
p1984
aVconservative
p1985
aVunromantically
p1986
aVcritical
p1987
aVdesynchronize
p1988
aVundock
p1989
aVgladden
p1990
aVdecentralise
p1991
aVinhabited
p1992
aVunluckily
p1993
aS'quitting'
p1994
aS'freed'
p1995
aVunsuccessfully
p1996
aVunethically
p1997
aVassembly
p1998
aVscientific
p1999
aS'ovulation'
p2000
aS'relented'
p2001
aS'malfunctioning'
p2002
aS'indestructible'
p2003
aVcommunicate
p2004
aVunusual
p2005
aVcarefulness
p2006
aS'loudest'
p2007
aS'disparaging'
p2008
aS'uneasy'
p2009
aVinnocence
p2010
aVendogamy
p2011
aS'diverged'
p2012
aS'patronising'
p2013
aS'on'
p2014
aS'unopposed'
p2015
aS'piety'
p2016
aVuntrustiness
p2017
aVpractical
p2018
aS'escalating'
p2019
aVsupervised
p2020
aVstand
p2021
aS'conceals'
p2022
aVact
p2023
aS'sadistic'
p2024
aS'tributary'
p2025
aVunconsciousness
p2026
aS'quietly'
p2027
aS'fertile'
p2028
aS'hypothermia'
p2029
aVweigh_down
p2030
aS'whiter'
p2031
aS'skilled'
p2032
aS'lifted'
p2033
aS'legged'
p2034
aVfertility
p2035
aVinattentiveness
p2036
aS'rising'
p2037
aS'lively'
p2038
aS'heated'
p2039
aS'lifting'
p2040
aVattachable
p2041
aVtheoretically
p2042
aVnonsmoker
p2043
aVfast
p2044
aS'unmodified'
p2045
aS'there'
p2046
aVliteral
p2047
aS'polyphony'
p2048
aVdecode
p2049
aVstart
p2050
aVcompliant
p2051
aVhydrous
p2052
aVlow
p2053
aS'colder'
p2054
aS'politeness'
p2055
aS'attends'
p2056
aVdecisive
p2057
aS'closed'
p2058
aS'undamaged'
p2059
aS'faulted'
p2060
aVobligatorily
p2061
aVunreliably
p2062
aVantecedent
p2063
aVproportionately
p2064
aS'peaceful'
p2065
aS'pleased'
p2066
aS'delayed'
p2067
aVsophisticated
p2068
aS'suffers'
p2069
aS'upbeat'
p2070
aVunreliable
p2071
aVpromote
p2072
aS'irreversible'
p2073
aVincoordination
p2074
aVpull
p2075
aVrush
p2076
aS'unrecorded'
p2077
aS'arranged'
p2078
aS'hallows'
p2079
aS'wholesale'
p2080
aS'interiors'
p2081
aVlawfully
p2082
aVunwellness
p2083
aS'unveils'
p2084
aS'nearest'
p2085
aS'sadness'
p2086
aS'arranges'
p2087
aS'esteem'
p2088
aS'dirty'
p2089
aS'irreconcilable'
p2090
aVagree
p2091
aS'darker'
p2092
aS'strongly'
p2093
aS'gone'
p2094
aS'diverges'
p2095
aS'fright'
p2096
aVmultilaterally
p2097
aVcertain
p2098
aS'downplayed'
p2099
aS'moved'
p2100
aVdeep
p2101
aVgeneral
p2102
aVimpalpable
p2103
aS'reliability'
p2104
aS'tasty'
p2105
aVcause_to_sleep
p2106
aVdenationalize
p2107
aVcontrolled
p2108
aS'upmarket'
p2109
aS'principled'
p2110
aVfill
p2111
aS'incorrect'
p2112
aVphilogyny
p2113
aS'unwelcome'
p2114
aS'completeness'
p2115
aS'inactivation'
p2116
aS'drivers'
p2117
aS'discontinuing'
p2118
aS'departs'
p2119
aVabolish
p2120
aS'productively'
p2121
aS'tight'
p2122
aVnarrowing
p2123
aS'terminating'
p2124
aS'noblemen'
p2125
aS'spatial'
p2126
aS'unneeded'
p2127
aVincomprehensible
p2128
aS'dismayed'
p2129
aS'immunity'
p2130
aVpoor
p2131
aS'attendances'
p2132
aS'ineligible'
p2133
aVdemobilize
p2134
aVforgettable
p2135
aS'includes'
p2136
aS'inaccuracy'
p2137
aVhardware
p2138
aVimportant
p2139
aVunattractive
p2140
aS'included'
p2141
aS'equitable'
p2142
aS'prudent'
p2143
aVunconstitutionally
p2144
aS'legitimate'
p2145
aVconclusive
p2146
aS'unpopularity'
p2147
aS'recapitulation'
p2148
aS'wife'
p2149
aS'requires'
p2150
aS'curve'
p2151
aVefflux
p2152
aS'disagreeing'
p2153
aS'impossibility'
p2154
aS'satisfied'
p2155
aS'haired'
p2156
aS'expenditure'
p2157
aS'sensibility'
p2158
aS'externally'
p2159
aS'liar'
p2160
aVforget
p2161
aVinexpedience
p2162
aS'crucial'
p2163
aS'forbidden'
p2164
aVlack
p2165
aS'disassembled'
p2166
aS'splitting'
p2167
aS'founded'
p2168
aS'ceased'
p2169
aS'surgical'
p2170
aVwinnings
p2171
aS'upholds'
p2172
aVcooperative
p2173
aS'fairness'
p2174
aS'managed'
p2175
aVdownwardly
p2176
aVinexpediency
p2177
aS'improperly'
p2178
aVunmalleability
p2179
aVsnail_mail
p2180
aVoff-line
p2181
aS'attentive'
p2182
aS'prefixed'
p2183
aS'blackest'
p2184
aVhyperthermia
p2185
aS'causative'
p2186
aS'preserved'
p2187
aS'health'
p2188
aVheterogeneity
p2189
aS'correcting'
p2190
aVendogenous
p2191
aS'degeneration'
p2192
aVweak_point
p2193
aS'woman'
p2194
aVequivocal
p2195
aVfar
p2196
aVdisjoin
p2197
aS'plausibility'
p2198
aS'unregulated'
p2199
aVperihelion
p2200
aVworst
p2201
aVnoncyclic
p2202
aVfall
p2203
aS'internationalism'
p2204
aS'manageable'
p2205
aS'concurring'
p2206
aS'disconnected'
p2207
aS'generalised'
p2208
aS'cheerful'
p2209
aVinduced
p2210
aVdenaturalize
p2211
aS'mothers'
p2212
aVingratitude
p2213
aS'mild'
p2214
aS'insufficiently'
p2215
aS'rationally'
p2216
aS'random'
p2217
aS'ungrammatical'
p2218
aS'sane'
p2219
aS'cluttered'
p2220
aS'liars'
p2221
aVsmall
p2222
aVbiological
p2223
aS'trustworthiness'
p2224
aS'correct'
p2225
aS'abbreviated'
p2226
aVunreliableness
p2227
aS'intelligibility'
p2228
aS'harder'
p2229
aS'sync'
p2230
aS'beliefs'
p2231
aS'past'
p2232
aS'honourable'
p2233
aS'boldness'
p2234
aS'pretentious'
p2235
aS'requiring'
p2236
aS'aptly'
p2237
aS'quicken'
p2238
aS'harden'
p2239
aVweakly
p2240
aVnonlinear
p2241
aS'stood'
p2242
aVillogical
p2243
aS'advantageous'
p2244
aS'completely'
p2245
aVimperceptible
p2246
aS'thickness'
p2247
aVdesegregate
p2248
aVimperceptibly
p2249
aS'fractional'
p2250
aVfalsify
p2251
aS'illegible'
p2252
aS'desegregation'
p2253
aS'sentient'
p2254
aS'excludes'
p2255
aS'eligibility'
p2256
aVfewest
p2257
aVloose
p2258
aVoverstatement
p2259
aS'favourably'
p2260
aS'smartest'
p2261
aVinconsiderable
p2262
aS'uneven'
p2263
aS'compressed'
p2264
aS'civilians'
p2265
aS'eventful'
p2266
aS'strong'
p2267
aVtragedy
p2268
aS'occupant'
p2269
aVbreakable
p2270
aS'admits'
p2271
aS'increments'
p2272
aS'unproven'
p2273
aVconviction
p2274
aVdifficulty
p2275
aS'identifiable'
p2276
aS'losses'
p2277
aS'allows'
p2278
aS'experience'
p2279
aVlipless
p2280
aS'desirability'
p2281
aVinfrequently
p2282
aS'periodic'
p2283
aS'acquittal'
p2284
aS'musically'
p2285
aVpublished
p2286
aVreal
p2287
aS'uncontrolled'
p2288
aVnarrow
p2289
aS'exited'
p2290
aS'sticking'
p2291
aVinvalidate
p2292
aS'followed'
p2293
aVretroactive
p2294
aVunrecoverable
p2295
aVunaggressive
p2296
aVimpiety
p2297
aS'emptied'
p2298
aS'put'
p2299
aS'follower'
p2300
aS'indoors'
p2301
aVcaptor
p2302
aVtrained
p2303
aS'inorganic'
p2304
aVdecrement
p2305
aS'armed'
p2306
aVinadequately
p2307
aVconventional
p2308
aS'attendance'
p2309
aS'composure'
p2310
aVdistinct
p2311
aVdamaged
p2312
aVunreproducible
p2313
aS'praised'
p2314
aS'unstressed'
p2315
aS'widens'
p2316
aVpermanently
p2317
aS'unthinkable'
p2318
aS'ethically'
p2319
aVmore
p2320
aS'underprivileged'
p2321
aS'insanely'
p2322
aS'commences'
p2323
aS'abridged'
p2324
aVcompromising
p2325
aVdematerialize
p2326
aS'corrected'
p2327
aVoutpatient
p2328
aS'minuscule'
p2329
aVunintelligent
p2330
aS'instrumental'
p2331
aS'unstable'
p2332
aVlanded
p2333
aS'misogyny'
p2334
aS'encouragement'
p2335
aS'regrettably'
p2336
aS'particular'
p2337
aS'known'
p2338
aS'suffered'
p2339
aS'negativity'
p2340
aS'respected'
p2341
aS'enlightenment'
p2342
aVlodge
p2343
aS'unrealistic'
p2344
aVsleeveless
p2345
aS'specializes'
p2346
aS'centrifugal'
p2347
aS'remain'
p2348
aS'ineffectual'
p2349
aS'fronted'
p2350
aVclergy
p2351
aVunfairness
p2352
aS'playable'
p2353
aVmale
p2354
aS'specialized'
p2355
aS'complain'
p2356
aVbeautiful
p2357
aS'stubborn'
p2358
aS'omit'
p2359
aS'antagonists'
p2360
aS'synchronized'
p2361
aS'neglected'
p2362
aVaccept
p2363
aVboycott
p2364
aS'pushed'
p2365
aVminimum
p2366
aVimitation
p2367
aS'purchased'
p2368
aVexclude
p2369
aS'disliked'
p2370
aS'narrowly'
p2371
aS'wisely'
p2372
aS'unexpected'
p2373
aVadvantage
p2374
aVawkward
p2375
aS'tributaries'
p2376
aS'comfort'
p2377
aS'stayed'
p2378
aVunsystematically
p2379
aS'unlucky'
p2380
aS'sacred'
p2381
aVreject
p2382
aS'activator'
p2383
aS'ingesting'
p2384
aVunalert
p2385
aS'hopeless'
p2386
aS'acknowledging'
p2387
aS'controversially'
p2388
aVintended
p2389
aS'thickened'
p2390
aS'disgraced'
p2391
aVlong
p2392
aVunashamed
p2393
aS'triumphs'
p2394
aS'unsound'
p2395
aS'interior'
p2396
aS'disable'
p2397
aS'lighting'
p2398
aS'unsurprising'
p2399
aS'offset'
p2400
aS'blacker'
p2401
aS'absences'
p2402
aVabsolve
p2403
aVrefuse
p2404
aVshort
p2405
aS'inbred'
p2406
aVcourteously
p2407
aVnonindulgent
p2408
aS'artful'
p2409
aVdispensable
p2410
aVunresentful
p2411
aS'felicity'
p2412
aS'pleasure'
p2413
aVimpermissible
p2414
aS'exclusions'
p2415
aVanticyclone
p2416
aS'anonymous'
p2417
aS'uncensored'
p2418
aVdisplease
p2419
aVdysgenics
p2420
aVdeveloped
p2421
aS'oblique'
p2422
aS'confirm'
p2423
aVanovulation
p2424
aS'defiant'
p2425
aS'left'
p2426
aS'existence'
p2427
aS'concentric'
p2428
aS'intelligently'
p2429
aS'disagreed'
p2430
aS'laced'
p2431
aS'rapidly'
p2432
aS'susceptible'
p2433
aS'wishful'
p2434
aVdeniable
p2435
aVfull-term
p2436
aS'lipped'
p2437
aVunintelligently
p2438
aS'fruitful'
p2439
aVlate
p2440
aS'environmentalism'
p2441
aVdetected
p2442
aS'disagrees'
p2443
aS'differed'
p2444
aS'conformist'
p2445
aS'materialize'
p2446
aVgood
p2447
aVdisrespectful
p2448
aS'secondarily'
p2449
aS'reassure'
p2450
aS'males'
p2451
aVimmobility
p2452
aS'obeyed'
p2453
aS'strapping'
p2454
aS'unacceptably'
p2455
aVvariableness
p2456
aS'permissible'
p2457
aVdetach
p2458
aVsmoothness
p2459
aS'respectful'
p2460
aS'reassured'
p2461
aVuncomplimentary
p2462
aS'finite'
p2463
aS'likeness'
p2464
aVunplayable
p2465
aS'pregnant'
p2466
aS'always'
p2467
aVirremovable
p2468
aS'featured'
p2469
aVrefresh
p2470
aVbless
p2471
aVinequality
p2472
aS'stopped'
p2473
aS'uploads'
p2474
aS'reassures'
p2475
aS'irreducible'
p2476
aS'aligns'
p2477
aS'intolerable'
p2478
aS'disorganized'
p2479
aS'duller'
p2480
aVdependableness
p2481
aS'flashbacks'
p2482
aVmalfunction
p2483
aVmental
p2484
aS'proscribed'
p2485
aS'resolute'
p2486
aVincapableness
p2487
aS'outlawing'
p2488
aS'accidentally'
p2489
aS'punitive'
p2490
aS'connect'
p2491
aVunharness
p2492
aVorient
p2493
aVnonmonotonic
p2494
aVreverent
p2495
aVcreditor
p2496
aS'blacks'
p2497
aS'sparingly'
p2498
aS'unnatural'
p2499
aS'disadvantages'
p2500
aVmonophonic_music
p2501
aS'reverend'
p2502
aS'safeties'
p2503
aS'safety'
p2504
aS'inactivated'
p2505
aS'cyclone'
p2506
aS'aligned'
p2507
aVantonymous
p2508
aS'attentions'
p2509
aVunbuckle
p2510
aS'expansive'
p2511
aVunidentifiable
p2512
aVdisobedience
p2513
aS'belief'
p2514
aS'risen'
p2515
aS'offsets'
p2516
aS'driver'
p2517
aS'enforcing'
p2518
aS'lesser'
p2519
aS'pleasant'
p2520
aS'extraordinary'
p2521
aVqualify
p2522
aS'brightest'
p2523
aS'members'
p2524
aS'straightened'
p2525
aS'plurals'
p2526
aS'weed'
p2527
aS'beginning'
p2528
aS'decoded'
p2529
aS'uplands'
p2530
aVuninfluential
p2531
aS'unresolved'
p2532
aVservice
p2533
aS'materialised'
p2534
aS'perceptible'
p2535
aS'needing'
p2536
aVdomineering
p2537
aS'predate'
p2538
aVdissuasion
p2539
aVundependableness
p2540
aVdisincentive
p2541
aS'omits'
p2542
aS'euphemism'
p2543
aS'botany'
p2544
aS'unhealthy'
p2545
aVprevent
p2546
aS'relate'
p2547
aVwelcome
p2548
aS'obedience'
p2549
aS'unaccompanied'
p2550
aVinfinite
p2551
aVincorporeal
p2552
aS'clogged'
p2553
aS'effortless'
p2554
aS'slower'
p2555
aS'distributive'
p2556
aS'euphoria'
p2557
aVmiss
p2558
aVvalidate
p2559
aS'unwillingness'
p2560
aS'hallowed'
p2561
aVdiffer
p2562
aS'breathless'
p2563
aVunfavorable
p2564
aS'kinder'
p2565
aVpatronize
p2566
aS'interwoven'
p2567
aVprokaryote
p2568
aS'tougher'
p2569
aS'moderately'
p2570
aVimmodest
p2571
aS'construct'
p2572
aS'sweetest'
p2573
aVunfaceted
p2574
aVclear_up
p2575
aS'added'
p2576
aS'tighter'
p2577
aS'hibernate'
p2578
aS'analytical'
p2579
aS'smoothed'
p2580
aS'merciless'
p2581
aS'motility'
p2582
aS'justly'
p2583
aVunclog
p2584
aVsynthetic
p2585
aS'dethroned'
p2586
aVuninstructive
p2587
aS'helpful'
p2588
aS'defused'
p2589
aS'basal'
p2590
aVappreciation
p2591
aS'luckily'
p2592
aVfavorable
p2593
aS'taxable'
p2594
aS'consonant'
p2595
aVstifle
p2596
aS'endlessly'
p2597
aS'uncut'
p2598
aS'linking'
p2599
aS'king'
p2600
aS'critically'
p2601
aVcyclic
p2602
aVinappropriateness
p2603
aS'impersonal'
p2604
aVpurposeless
p2605
aVutopia
p2606
aVobfuscate
p2607
aVsedate
p2608
aVoutdoors
p2609
aS'elaborate'
p2610
aVstale
p2611
aS'tonality'
p2612
aS'remembers'
p2613
aS'interactive'
p2614
aVpostdate
p2615
aS'substantiated'
p2616
aVstrengthen
p2617
aS'imports'
p2618
aS'heaviest'
p2619
aVoverstate
p2620
aS'juicy'
p2621
aVaffirmative
p2622
aS'alike'
p2623
aS'cleaned'
p2624
aVunafraid
p2625
aS'confirms'
p2626
aS'vulnerable'
p2627
aVsell
p2628
aVlie
p2629
aVhopelessly
p2630
aVuntrustworthiness
p2631
aS'permanence'
p2632
aS'imitations'
p2633
aS'conforming'
p2634
aS'majority'
p2635
aS'empirically'
p2636
aS'internal'
p2637
aVundramatic
p2638
aS'useless'
p2639
aVfrail
p2640
aS'aggravating'
p2641
aVindiscernible
p2642
aS'extensible'
p2643
aVseedless
p2644
aVexperienced
p2645
aS'artesian'
p2646
aS'approves'
p2647
aS'multilingual'
p2648
aS'equipping'
p2649
aVunceremoniously
p2650
aS'conspicuously'
p2651
aS'most'
p2652
aS'hired'
p2653
aS'experiences'
p2654
aS'significant'
p2655
aS'starboard'
p2656
aS'accepting'
p2657
aS'conventionally'
p2658
aVwisdom
p2659
aS'gregarious'
p2660
aVunremarkably
p2661
aVbe_full
p2662
aVunrespectability
p2663
aS'peaked'
p2664
aS'unequal'
p2665
aS'unsupervised'
p2666
aVmobile
p2667
aVclear
p2668
aVpopularity
p2669
aVunreasonable
p2670
aS'traditional'
p2671
aVdisembarkation
p2672
aVunweave
p2673
aVorganise
p2674
aVclean
p2675
aVdiscontinuance
p2676
aS'usual'
p2677
aS'attacking'
p2678
aVdrunkenness
p2679
aVundesirability
p2680
aVunimportance
p2681
aVnon-invertible
p2682
aS'hipped'
p2683
aVinconsistently
p2684
aS'converge'
p2685
aVnoncitizen
p2686
aS'inflexible'
p2687
aS'minimizing'
p2688
aS'malignant'
p2689
aS'acceptability'
p2690
aVmultilateral
p2691
aS'immaturity'
p2692
aS'degraded'
p2693
aVcommonality
p2694
aS'fame'
p2695
aVnonrepresentational
p2696
aVunrighteous
p2697
aS'exteriors'
p2698
aVworthy
p2699
aS'awakens'
p2700
aVnorthern
p2701
aVspineless
p2702
aS'justice'
p2703
aS'merges'
p2704
aVherbivorous
p2705
aVunhappy
p2706
aVdestabilize
p2707
aS'impenetrable'
p2708
aVunjustly
p2709
aS'aground'
p2710
aS'removable'
p2711
aS'incapacitating'
p2712
aVquadrupedal
p2713
aS'merged'
p2714
aS'clarifying'
p2715
aS'intractable'
p2716
aS'uncontested'
p2717
aS'associating'
p2718
aVungrateful
p2719
aS'secular'
p2720
aVexpress
p2721
aVunconventionally
p2722
aS'cheaper'
p2723
aVcourage
p2724
aS'hid'
p2725
aS'fastest'
p2726
aVdocile
p2727
aS'intensify'
p2728
aS'emails'
p2729
aVfallible
p2730
aVprogressive
p2731
aS'pleasures'
p2732
aVcry
p2733
aS'surrendering'
p2734
aS'reputable'
p2735
aS'filled'
p2736
aS'activity'
p2737
aVmendacity
p2738
aS'dividing'
p2739
aVconsciously
p2740
aVsatisfy
p2741
aS'condemnation'
p2742
aS'extensor'
p2743
aS'disapproving'
p2744
aVintemperate
p2745
aS'unpublished'
p2746
aVoutboard
p2747
aVpotent
p2748
aVplausible
p2749
aVirregularly
p2750
aVunsanitary
p2751
aS'manly'
p2752
aVvocal
p2753
aS'surrendered'
p2754
aVinefficacy
p2755
aVtender
p2756
aVuntimbered
p2757
aS'changeable'
p2758
aS'theoretic'
p2759
aVarm
p2760
aS'locals'
p2761
aVunscholarly
p2762
aVprobable
p2763
aS'plasticity'
p2764
aVimpurity
p2765
aVpositivity
p2766
aVplease
p2767
aS'precocious'
p2768
aS'rejecting'
p2769
aS'coordination'
p2770
aS'degrading'
p2771
aS'dismantling'
p2772
aVincaution
p2773
aS'falsehood'
p2774
aS'vascular'
p2775
aS'acidic'
p2776
aS'subscript'
p2777
aS'corruption'
p2778
aVavailable
p2779
aS'milder'
p2780
aS'strangest'
p2781
aVinvisibly
p2782
aVahistorical
p2783
aS'sold'
p2784
aS'attention'
p2785
aVunmalicious
p2786
aVdisallow
p2787
aVincommensurate
p2788
aVstyleless
p2789
aS'invest'
p2790
aVtearless
p2791
aS'competent'
p2792
aS'inertia'
p2793
aVunapologetic
p2794
aS'tangible'
p2795
aS'widest'
p2796
aS'influential'
p2797
aVtreated
p2798
aS'foreign'
p2799
aVquadruped
p2800
aVsensitive
p2801
aS'connection'
p2802
aS'improves'
p2803
aS'forgotten'
p2804
aS'poverty'
p2805
aS'inclusions'
p2806
aVwhole
p2807
aVimmotility
p2808
aVunmusically
p2809
aVthinkable
p2810
aVdysphemism
p2811
aS'elaborating'
p2812
aS'expendable'
p2813
aVheaded
p2814
aVunsoundness
p2815
aS'acted'
p2816
aS'uncivil'
p2817
aS'corresponds'
p2818
aVimproper
p2819
aVcenogenesis
p2820
aVregulated
p2821
aVunsuccessful
p2822
aVimprovement
p2823
aS'expensive'
p2824
aS'patiently'
p2825
aVunprovocative
p2826
aS'worthless'
p2827
aVraise
p2828
aS'inadmissible'
p2829
aS'incomes'
p2830
aS'scented'
p2831
aVintracellular
p2832
aS'creativity'
p2833
aVdue
p2834
aS'patronised'
p2835
aVuncritically
p2836
aS'convicted'
p2837
aVunpatriotic
p2838
aS'faithfully'
p2839
aVfreelance
p2840
aS'coarse'
p2841
aS'anisotropic'
p2842
aS'preventable'
p2843
aS'intrusive'
p2844
aS'employs'
p2845
aVempty
p2846
aVnonpsychoactive
p2847
aS'sleeved'
p2848
aVpartly
p2849
aS'sobriety'
p2850
aS'silenced'
p2851
aVfire
p2852
aVdeflationary
p2853
aVexempt
p2854
aVimprudence
p2855
aS'precision'
p2856
aS'adaptable'
p2857
aS'moderation'
p2858
aS'competencies'
p2859
aS'awake'
p2860
aS'coalitions'
p2861
aS'systematic'
p2862
aS'opposites'
p2863
aVgrand_larceny
p2864
aS'resisted'
p2865
aVhardness
p2866
aVhonest
p2867
aS'inclement'
p2868
aS'practicality'
p2869
aVuncertain
p2870
aVwrongness
p2871
aVsolid
p2872
aS'reliable'
p2873
aS'expanded'
p2874
aS'empirical'
p2875
aVravel
p2876
aS'admire'
p2877
aS'forgetting'
p2878
aVsocialism
p2879
aS'compactness'
p2880
aS'reliably'
p2881
aVinvolved
p2882
aVunappreciatively
p2883
aVimpassable
p2884
aVuncompromising
p2885
aS'shortened'
p2886
aVunclearness
p2887
aS'enriching'
p2888
aS'violently'
p2889
aVobtrusive
p2890
aS'faceted'
p2891
aS'bipedal'
p2892
aVdestabilization
p2893
aS'propriety'
p2894
aS'anode'
p2895
aS'beautifully'
p2896
aS'vanish'
p2897
aS'fairer'
p2898
aVunnoticeable
p2899
aS'integrates'
p2900
aS'aged'
p2901
aS'stimulates'
p2902
aS'benevolence'
p2903
aS'fetching'
p2904
aVdishonor
p2905
aS'shorter'
p2906
aVbenign
p2907
aS'discredit'
p2908
aS'orientated'
p2909
aVunsusceptibility
p2910
aS'ugliness'
p2911
aVproved
p2912
aVimpious
p2913
aS'daughters'
p2914
aVunwary
p2915
aS'disenchanted'
p2916
aS'unprofitable'
p2917
aS'displeased'
p2918
aS'fatty'
p2919
aVpainless
p2920
aS'malicious'
p2921
aS'husbands'
p2922
aVpatriotic
p2923
aS'nights'
p2924
aS'arrived'
p2925
aS'decency'
p2926
aS'anhydrous'
p2927
aS'robust'
p2928
aS'usefully'
p2929
aVtimid
p2930
aS'residents'
p2931
aVdark
p2932
aVlower
p2933
aVabnormality
p2934
aS'infertility'
p2935
aS'equalled'
p2936
aS'persuasive'
p2937
aS'docked'
p2938
aS'wedged'
p2939
aVcheer
p2940
aVineffectiveness
p2941
aS'withdraw'
p2942
aS'beginnings'
p2943
aS'recoverable'
p2944
aS'breastfeeding'
p2945
aVdiscourteously
p2946
aVabstain
p2947
aVprecedented
p2948
aVegoistic
p2949
aVinarticulately
p2950
aS'migratory'
p2951
aS'scrupulous'
p2952
aVincongruity
p2953
aVimpreciseness
p2954
aS'competitive'
p2955
aS'necessitating'
p2956
aS'daybreak'
p2957
aS'elegance'
p2958
aS'questions'
p2959
aS'love'
p2960
aS'holiness'
p2961
aVdishonesty
p2962
aVuselessly
p2963
aVprofitable
p2964
aVungratefully
p2965
aVsuperficial
p2966
aVloading
p2967
aS'relevancy'
p2968
aVnondevelopment
p2969
aVelation
p2970
aS'informal'
p2971
aS'hated'
p2972
aS'workers'
p2973
aVdanger
p2974
aS'desist'
p2975
aS'declined'
p2976
aS'speedily'
p2977
aS'representational'
p2978
aS'parents'
p2979
aS'bravery'
p2980
aS'comprehensible'
p2981
aS'selfish'
p2982
aS'decontamination'
p2983
aS'impoverished'
p2984
aS'profitably'
p2985
aS'remaining'
p2986
aS'hates'
p2987
aS'unscheduled'
p2988
aVdependability
p2989
aS'inelastic'
p2990
aVhomozygous
p2991
aS'complains'
p2992
aS'adversaries'
p2993
aS'conformed'
p2994
aVbig
p2995
aVjoyless
p2996
aS'laughed'
p2997
aS'unlimited'
p2998
aVcheerlessly
p2999
aS'wives'
p3000
aS'enthusiastically'
p3001
aVnoncompetitively
p3002
aS'logical'
p3003
aS'foreigners'
p3004
aS'wiser'
p3005
aVantiseptic
p3006
aS'awaken'
p3007
aS'competitively'
p3008
aVformal
p3009
aS'realistically'
p3010
aS'degenerated'
p3011
aS'success'
p3012
aS'improbable'
p3013
aS'systematically'
p3014
aVconfront
p3015
aS'interestingly'
p3016
aS'adiabatic'
p3017
aVunadaptable
p3018
aS'achievers'
p3019
aVdistrust
p3020
aVcontinue
p3021
aVindication
p3022
aS'borrows'
p3023
aS'starry'
p3024
aS'popular'
p3025
aVsoftness
p3026
aS'foolish'
p3027
aS'alignments'
p3028
aVcollective
p3029
aVnoninterference
p3030
aVcentralize
p3031
aVoften
p3032
aS'humorous'
p3033
aS'fathers'
p3034
aVsome
p3035
aVundress
p3036
aS'stimulated'
p3037
aVloser
p3038
aS'strongest'
p3039
aVinsincere
p3040
aS'hurriedly'
p3041
aVcomplete
p3042
aS'restrictive'
p3043
aS'parasite'
p3044
aS'amicable'
p3045
aS'irresistible'
p3046
aVacquaintance
p3047
aS'louder'
p3048
aVunquotable
p3049
aVvagile
p3050
aS'integration'
p3051
aVconditionally
p3052
aVquickly
p3053
aS'connecting'
p3054
aVmasculinity
p3055
aS'forgets'
p3056
aS'minimal'
p3057
aS'squandered'
p3058
aVsympathetic
p3059
aVpatient
p3060
aS'heed'
p3061
aVspecify
p3062
aS'remembered'
p3063
aVnonfunctional
p3064
aS'continuing'
p3065
aVagreement
p3066
aS'refused'
p3067
aS'onside'
p3068
aVunenthusiastic
p3069
aS'cheered'
p3070
aS'negatives'
p3071
aS'political'
p3072
aS'relating'
p3073
aS'subtract'
p3074
aVdownward
p3075
aS'elderly'
p3076
aS'unconfirmed'
p3077
aS'serviceable'
p3078
aS'cautious'
p3079
aS'exaggerated'
p3080
aVnominative
p3081
aVprove
p3082
aS'conciliatory'
p3083
aVamphoteric
p3084
aVrepulsion
p3085
aS'hatred'
p3086
aS'complimentary'
p3087
aVsilence
p3088
aVcredible
p3089
aVrepair
p3090
aVmalevolence
p3091
aS'convergent'
p3092
aVnoninvasive
p3093
aVincoherence
p3094
aS'auntie'
p3095
aVdecertify
p3096
aS'within'
p3097
aVimmoderation
p3098
aVdissatisfaction
p3099
aVuncontroversially
p3100
aS'inaction'
p3101
aVappropriate
p3102
aS'inhospitable'
p3103
aVprimarily
p3104
aVnonparticipation
p3105
aVcredibly
p3106
aS'boycotting'
p3107
aS'uncertainties'
p3108
aS'innate'
p3109
aS'harnessed'
p3110
aVtake_away
p3111
aS'question'
p3112
aS'normality'
p3113
aS'approved'
p3114
aVdisinflation
p3115
aS'rivalries'
p3116
aS'discontinuities'
p3117
aVforward
p3118
aVanalyze
p3119
aS'disallowed'
p3120
aS'bester'
p3121
aS'melodic'
p3122
aS'insensitivity'
p3123
aS'governs'
p3124
aS'graciously'
p3125
aVregistered
p3126
aVsolidity
p3127
aVunexpendable
p3128
aS'psychoactive'
p3129
aS'boys'
p3130
aVsubjectively
p3131
aVflexor
p3132
aVsegregation
p3133
aS'newer'
p3134
aVclassified
p3135
aS'artefacts'
p3136
aS'disliking'
p3137
aVdull
p3138
aS'holiest'
p3139
aVresistible
p3140
aS'liberators'
p3141
aVhumorless
p3142
aS'nieces'
p3143
aS'fissile'
p3144
aS'inhumane'
p3145
aS'detachable'
p3146
aVup
p3147
aS'lessened'
p3148
aVmaturity
p3149
aS'cautiously'
p3150
aVasynchronism
p3151
aVuninitiate
p3152
aVheterogeneous
p3153
aVhappiness
p3154
aS'loving'
p3155
aS'similar'
p3156
aVestivate
p3157
aS'individuality'
p3158
aS'associated'
p3159
aS'adults'
p3160
aS'mindful'
p3161
aVdefined
p3162
aS'weighty'
p3163
aVelitist
p3164
aS'unsafe'
p3165
aS'accessibility'
p3166
aS'singly'
p3167
aVdeprive
p3168
aS'satisfies'
p3169
aVtuneless
p3170
aS'obtuse'
p3171
aS'graceful'
p3172
aS'formalism'
p3173
aVnationalism
p3174
aS'unsaturated'
p3175
aVinoffensively
p3176
aS'predictability'
p3177
aS'ancestors'
p3178
aVconductor
p3179
aVunjustifiably
p3180
aVunreasonably
p3181
aS'neglecting'
p3182
aS'peace'
p3183
aS'fears'
p3184
aVtactlessness
p3185
aS'intensifying'
p3186
aS'democratically'
p3187
aS'conceptions'
p3188
aVyang
p3189
aVdisenchant
p3190
aVincome
p3191
aS'shallower'
p3192
aVinglorious
p3193
aVirreplaceable
p3194
aVnay
p3195
aVdeviate
p3196
aVnice
p3197
aVunscalable
p3198
aS'intensifies'
p3199
aVlend
p3200
aS'understatement'
p3201
aS'prosecution'
p3202
aVprepared
p3203
aS'intensified'
p3204
aS'allowing'
p3205
aVoldness
p3206
aS'deciphered'
p3207
aS'unenforceable'
p3208
aVde-energize
p3209
aS'worsened'
p3210
aS'deterrence'
p3211
aS'happier'
p3212
aVnonpolitical
p3213
aS'complicating'
p3214
aS'required'
p3215
aS'awakes'
p3216
aVbequeath
p3217
aS'walked'
p3218
aS'admiring'
p3219
aS'impatient'
p3220
aVwaxing
p3221
aS'declination'
p3222
aS'incomplete'
p3223
aS'wary'
p3224
aS'retardation'
p3225
aS'fresh'
p3226
aS'underrated'
p3227
aS'imprecise'
p3228
aS'proximate'
p3229
aS'evenly'
p3230
aS'exiled'
p3231
aVpartial
p3232
aVserviceman
p3233
aS'incorporate'
p3234
aVnonattendance
p3235
aVuncreativeness
p3236
aVlowland
p3237
aS'soften'
p3238
aS'alien'
p3239
aS'debtors'
p3240
aS'renown'
p3241
aS'hypothyroidism'
p3242
aS'broader'
p3243
aVgo
p3244
aS'query'
p3245
aS'flashback'
p3246
aVinattentive
p3247
aS'worrisome'
p3248
aVcompact
p3249
aVwittingly
p3250
aS'biggest'
p3251
aS'breached'
p3252
aVnationalization
p3253
aS'uphold'
p3254
aS'rivalry'
p3255
aVyoung
p3256
aVungrudgingly
p3257
aS'uninformative'
p3258
aVunpeaceful
p3259
aS'outwards'
p3260
aS'excluded'
p3261
aVstable
p3262
aVexit
p3263
aVdislike
p3264
aVinclude
p3265
aS'friendly'
p3266
aS'uploaded'
p3267
aVvirtuous
p3268
aVarmament
p3269
aVimplicitly
p3270
aS'continues'
p3271
aS'prudence'
p3272
aS'degrades'
p3273
aS'unstructured'
p3274
aVdisloyalty
p3275
aVsensitivity
p3276
aS'materialise'
p3277
aS'implausible'
p3278
aS'lacking'
p3279
aVdiscouragement
p3280
aVindecorum
p3281
aS'continued'
p3282
aVclement
p3283
aS'arrange'
p3284
aS'undue'
p3285
aVincoherent
p3286
aS'succeed'
p3287
aS'sanctity'
p3288
aS'diverging'
p3289
aVnonmigratory
p3290
aS'integrating'
p3291
aS'fewer'
p3292
aS'damning'
p3293
aVinelegant
p3294
aVmachine-made
p3295
aS'avoiding'
p3296
aVmobilize
p3297
aS'friendliness'
p3298
aS'enforce'
p3299
aS'calmed'
p3300
aS'worldly'
p3301
aS'impressively'
p3302
aS'lightest'
p3303
aVfall_asleep
p3304
aVrevocable
p3305
aVunprofitably
p3306
aVuncomfortable
p3307
aVrealistic
p3308
aVdownload
p3309
aS'unimproved'
p3310
aS'odd'
p3311
aS'depression'
p3312
aVinaccurate
p3313
aS'unavailable'
p3314
aS'invertible'
p3315
aS'opaque'
p3316
aS'waning'
p3317
aVfine
p3318
aS'exacerbate'
p3319
aVinconstancy
p3320
aVunhelpful
p3321
aS'consistently'
p3322
aVgutlessness
p3323
aVaperiodic
p3324
aVunargumentative
p3325
aS'obvious'
p3326
aS'aligning'
p3327
aVfearlessness
p3328
aVunairworthy
p3329
aVunenthusiastically
p3330
aS'apologetic'
p3331
aVdeciduous_plant
p3332
aVnonexistent
p3333
aS'youngest'
p3334
aS'growing'
p3335
aVacquit
p3336
aVfocused
p3337
aS'expansion'
p3338
aS'separation'
p3339
aS'dissuade'
p3340
aS'sexy'
p3341
aS'safer'
p3342
aS'enterprising'
p3343
aS'imperfections'
p3344
aS'widening'
p3345
aS'newness'
p3346
aVengage
p3347
aS'indivisible'
p3348
aVindiscreetly
p3349
aVconceit
p3350
aS'withdrawing'
p3351
aVunwittingly
p3352
aVstupidity
p3353
aS'headless'
p3354
aVrepel
p3355
aVendogenic
p3356
aVdecriminalise
p3357
aVdefeat
p3358
aS'existent'
p3359
aS'antecedents'
p3360
aS'climb'
p3361
aS'disowned'
p3362
aVhonor
p3363
aS'chaste'
p3364
aS'decentralized'
p3365
aS'stabilization'
p3366
aVfalsity
p3367
aVforbid
p3368
aS'folded'
p3369
aVdisobey
p3370
aS'manage'
p3371
aVsameness
p3372
aVundemocratically
p3373
aVunwillingly
p3374
aS'assemble'
p3375
aVdecrease
p3376
aVprivately
p3377
aS'prohibiting'
p3378
aS'unresponsive'
p3379
aS'clockwise'
p3380
aVatypically
p3381
aVinconveniently
p3382
aS'speciality'
p3383
aS'strapped'
p3384
aS'dissonance'
p3385
aS'recalling'
p3386
aVillegal
p3387
aS'seamless'
p3388
aS'adequacy'
p3389
aS'figurative'
p3390
aVfew
p3391
aS'doubt'
p3392
aVcontentment
p3393
aVimmodestly
p3394
aS'availability'
p3395
aS'constitutionally'
p3396
aVagreeable
p3397
aS'individualism'
p3398
aS'defendant'
p3399
aVunequally
p3400
aS'sons'
p3401
aS'slim'
p3402
aVformally
p3403
aS'unilaterally'
p3404
aVinfamy
p3405
aS'untamed'
p3406
aS'started'
p3407
aS'undeclared'
p3408
aS'criticising'
p3409
aS'visibility'
p3410
aS'disarming'
p3411
aVfoolishly
p3412
aVderegulate
p3413
aS'ashamed'
p3414
aS'informally'
p3415
aS'demobilization'
p3416
aS'unfaithful'
p3417
aS'disabling'
p3418
aVpotential
p3419
aS'verity'
p3420
aS'high'
p3421
aS'uncontroversial'
p3422
aS'disingenuous'
p3423
aS'embarked'
p3424
aVride
p3425
aVavascular
p3426
aS'dislodged'
p3427
aS'unreal'
p3428
aS'irreparable'
p3429
aVthin
p3430
aVpraise
p3431
aS'closing'
p3432
aVinhibitor
p3433
aS'withdrew'
p3434
aS'purity'
p3435
aVcontinuity
p3436
aS'weaker'
p3437
aVreserved
p3438
aS'unveiled'
p3439
aVthirsty
p3440
aVhypersomnia
p3441
aVlock
p3442
aS'inaccessible'
p3443
aVunhappiness
p3444
aS'effectively'
p3445
aVlegible
p3446
aVbend
p3447
aS'bloodiest'
p3448
aS'intramural'
p3449
aVovertly
p3450
aVweaken
p3451
aS'sis'
p3452
aS'unclassified'
p3453
aS'united'
p3454
aVnonextensile
p3455
aS'hydrophilic'
p3456
aS'friendlies'
p3457
aVintelligible
p3458
aVunrelatedness
p3459
aS'commencement'
p3460
aS'uncompressed'
p3461
aS'roughness'
p3462
aS'darkest'
p3463
aS'winners'
p3464
aS'unites'
p3465
aS'complained'
p3466
aS'justifiably'
p3467
aS'aft'
p3468
aVunidirectional
p3469
aS'grudgingly'
p3470
aS'comedy'
p3471
aS'intelligent'
p3472
aS'obeys'
p3473
aS'ceasing'
p3474
aS'maternal'
p3475
aS'attend'
p3476
aVsingular
p3477
aS'incompetence'
p3478
aS'tact'
p3479
aS'tied'
p3480
aS'nullify'
p3481
aVdiscomfort
p3482
aS'complainant'
p3483
aVlegality
p3484
aVunnaturally
p3485
aS'disproved'
p3486
aVprolix
p3487
aS'loaned'
p3488
aS'efficiently'
p3489
aVambiguous
p3490
aS'majorities'
p3491
aVbind
p3492
aVsit
p3493
aVunprejudiced
p3494
aS'correspond'
p3495
aS'acquitted'
p3496
aS'synchronization'
p3497
aVdecolonise
p3498
aS'allow'
p3499
aS'humorously'
p3500
aS'volunteers'
p3501
aS'divided'
p3502
aS'longest'
p3503
aS'ignite'
p3504
aS'unsolved'
p3505
aVunderstate
p3506
aVsaturated
p3507
aS'unbreakable'
p3508
aS'sanctioned'
p3509
aVunpalatable
p3510
aS'demobilized'
p3511
aS'disarm'
p3512
aS'artefact'
p3513
aS'twining'
p3514
aVrepentant
p3515
aVunofficially
p3516
aS'including'
p3517
aS'warred'
p3518
aVsurmountable
p3519
aS'flattering'
p3520
aVunquestionable
p3521
aS'happiest'
p3522
aS'argumentative'
p3523
aS'superior'
p3524
aVnonwoody
p3525
aS'outer'
p3526
aS'exclusion'
p3527
aVovervalue
p3528
aVfemale_parent
p3529
aVinclusion
p3530
aVimperfection
p3531
aS'untreated'
p3532
aVwilling
p3533
aVsensitiveness
p3534
aS'insulator'
p3535
aS'prohibit'
p3536
aS'covered'
p3537
aVimbalance
p3538
aS'staying'
p3539
aS'violating'
p3540
aVnonfatal
p3541
aS'impervious'
p3542
aS'bolder'
p3543
aVmaterial
p3544
aVopacity
p3545
aS'blessed'
p3546
aS'negligent'
p3547
aVunimpressively
p3548
aS'seawater'
p3549
aS'resolve'
p3550
aVasymmetrical
p3551
aVfront
p3552
aVdocumented
p3553
aS'genuine'
p3554
aVday
p3555
aS'dielectric'
p3556
aS'literacy'
p3557
aS'clouded'
p3558
aS'profound'
p3559
aS'tallied'
p3560
aS'immoral'
p3561
aVdemote
p3562
aVinadvisable
p3563
aS'concave'
p3564
aVirrelevance
p3565
aS'draftees'
p3566
aVsufficiently
p3567
aVtruth
p3568
aS'incapacitated'
p3569
aVunevenly
p3570
aVaccompanied
p3571
aS'beneath'
p3572
aS'uninteresting'
p3573
aVwhiten
p3574
aS'homogeneous'
p3575
aS'exacerbated'
p3576
aVlook_down_on
p3577
aS'privatisation'
p3578
aVunrhythmical
p3579
aVwaking
p3580
aS'unbelievable'
p3581
aVrelated
p3582
aS'aggravated'
p3583
aS'zoology'
p3584
aVunserviceable
p3585
aS'licking'
p3586
aS'relates'
p3587
aVsexual
p3588
aS'cerebral'
p3589
aVdefend
p3590
aVunproductively
p3591
aVunlawful
p3592
aVenforceable
p3593
aS'profitability'
p3594
aVwholly
p3595
aS'impartial'
p3596
aS'bicameral'
p3597
aVstay_in_place
p3598
aS'maximized'
p3599
aS'unprepared'
p3600
aS'adaptive'
p3601
aVplural
p3602
aS'highs'
p3603
aS'affirming'
p3604
aVcommon
p3605
aS'dissented'
p3606
aVnonmechanical
p3607
aS'shut'
p3608
aVstarless
p3609
aS'perish'
p3610
aS'unwieldy'
p3611
aVunmemorably
p3612
aVdiscontinuity
p3613
aVundiplomatically
p3614
aS'attending'
p3615
aVmonophony
p3616
aS'instructive'
p3617
aS'provident'
p3618
aVenfranchise
p3619
aS'disintegrating'
p3620
aS'conservatives'
p3621
aVasynchronous
p3622
aS'likelihood'
p3623
aS'shortest'
p3624
aS'repairing'
p3625
aS'dismantled'
p3626
aS'backwards'
p3627
aVmasochistic
p3628
aVhostile
p3629
aVenchant
p3630
aS'synthesized'
p3631
aS'diminished'
p3632
aVkeep
p3633
aS'illicit'
p3634
aVisotropic
p3635
aS'distrusted'
p3636
aS'detained'
p3637
aVretail
p3638
aVsorrowful
p3639
aS'stimulate'
p3640
aS'softer'
p3641
aVinsane
p3642
aS'incarnate'
p3643
aS'exonerated'
p3644
aS'unwanted'
p3645
aVobscurity
p3646
aS'succeeds'
p3647
aS'powerful'
p3648
aS'unsupported'
p3649
aS'introspective'
p3650
aVunproductiveness
p3651
aVweak
p3652
aVrugged
p3653
aS'filial'
p3654
aS'synthesizing'
p3655
aVcontinental
p3656
aS'ignited'
p3657
aS'sadly'
p3658
aS'uninhabited'
p3659
aVextrinsic
p3660
aVunequivocal
p3661
aVunreliability
p3662
aS'unspecified'
p3663
aVcall_option
p3664
aVnonexploratory
p3665
aS'attach'
p3666
aS'deducted'
p3667
aS'inalienable'
p3668
aS'cautions'
p3669
aS'intelligence'
p3670
aS'wrapped'
p3671
aS'travelled'
p3672
aVmilitarise
p3673
aS'fairest'
p3674
aS'painful'
p3675
aVinner
p3676
aS'disagreeable'
p3677
aS'terminates'
p3678
aVunscrupulous
p3679
aS'infallibility'
p3680
aS'plausibly'
p3681
aVshallow
p3682
aVungrammatically
p3683
aS'laymen'
p3684
aS'monotheism'
p3685
aVbottom_out
p3686
aS'suitability'
p3687
aS'diminish'
p3688
aS'commence'
p3689
aVstressed
p3690
aS'accelerates'
p3691
aS'loved'
p3692
aS'succeeded'
p3693
aS'uninterested'
p3694
aVwet
p3695
aS'richer'
p3696
aVclaim
p3697
aVincompleteness
p3698
aVdefense
p3699
aS'loves'
p3700
aVlight
p3701
aS'abolished'
p3702
aS'indistinct'
p3703
aVinsignificance
p3704
aS'creditors'
p3705
aS'rhythmic'
p3706
aS'enforced'
p3707
aS'false'
p3708
aS'separations'
p3709
aS'unchanged'
p3710
aVnonsurgical
p3711
aS'curves'
p3712
aS'comfortable'
p3713
aS'landless'
p3714
aVunavailability
p3715
aS'prophetic'
p3716
aVunlikely
p3717
aVhave
p3718
aVclose
p3719
aS'linked'
p3720
aS'disengaged'
p3721
aVacceleration
p3722
aS'unbearable'
p3723
aVafraid
p3724
aVdeodourise
p3725
aS'regressive'
p3726
aS'vested'
p3727
aS'able'
p3728
aS'darkened'
p3729
aVincentive
p3730
aS'outward'
p3731
aS'ably'
p3732
aS'best'
p3733
aVsufficiency
p3734
aVdissuasive
p3735
aS'seductive'
p3736
aVcompetence
p3737
aS'vegetation'
p3738
aVaccuracy
p3739
aVliberator
p3740
aVincorruptness
p3741
aS'immaterial'
p3742
aS'harmful'
p3743
aVcourtesy
p3744
aVconnected
p3745
aS'demise'
p3746
aS'eukaryotes'
p3747
aVunfaithfulness
p3748
aS'assertive'
p3749
aS'intrinsic'
p3750
aS'payment'
p3751
aVdorsal
p3752
aVdeny
p3753
aVhyperthyroidism
p3754
aS'ignites'
p3755
aS'undeniable'
p3756
aS'enthusiastic'
p3757
aS'atypical'
p3758
aS'stronger'
p3759
aVreconcilable
p3760
aVpenitent
p3761
aS'lowered'
p3762
aS'artificially'
p3763
aS'mechanical'
p3764
aVtypical
p3765
aS'normally'
p3766
aVunsystematic
p3767
aVincredibility
p3768
aVthicken
p3769
aS'insulators'
p3770
aVconvinced
p3771
aVfamiliarity
p3772
aS'agreed'
p3773
aVindoor
p3774
aS'terminate'
p3775
aS'centralized'
p3776
aVmalodorous
p3777
aVdissociate
p3778
aS'tearful'
p3779
aS'brine'
p3780
aS'unpaved'
p3781
aS'beauties'
p3782
aS'fear'
p3783
aVdetermined
p3784
aVunintelligibility
p3785
aS'thicker'
p3786
aS'subtracting'
p3787
aS'nearer'
p3788
aS'monotheistic'
p3789
aS'holistic'
p3790
aS'unfinished'
p3791
aS'concurred'
p3792
aS'downstairs'
p3793
aVwinner
p3794
aVhopeful
p3795
aVemployer
p3796
aS'brighter'
p3797
aVdestabilisation
p3798
aS'smallest'
p3799
aVemployee
p3800
aS'local'
p3801
aVinferior
p3802
aS'equilibrium'
p3803
aS'regularly'
p3804
aS'righteousness'
p3805
aVflash-forward
p3806
aVimprovident
p3807
aS'disprove'
p3808
aVplaintiff
p3809
aVfamiliar
p3810
aS'unchained'
p3811
aS'simplest'
p3812
aVlucky
p3813
aS'enthroned'
p3814
aS'reputations'
p3815
aS'voided'
p3816
aVperfection
p3817
aS'allowed'
p3818
aVupwardly
p3819
aS'ascended'
p3820
aVgeneralist
p3821
aS'playful'
p3822
aS'evolution'
p3823
aVdishearten
p3824
aVsanely
p3825
aS'unauthorized'
p3826
aS'hiring'
p3827
aS'adaptability'
p3828
aVwellness
p3829
aVmarried
p3830
aS'expansions'
p3831
aVinsectivorous
p3832
aS'relents'
p3833
aVincapacity
p3834
aVcounterfeit
p3835
aS'avoidable'
p3836
aVunadaptability
p3837
aS'tightening'
p3838
aS'fixed'
p3839
aVfallibility
p3840
aVdiscontentment
p3841
aS'strengthened'
p3842
aS'multiplying'
p3843
aVmarginality
p3844
aS'omitting'
p3845
aVfreeze
p3846
aVdislodge
p3847
aVgeometrically
p3848
aS'usefulness'
p3849
aS'unfairly'
p3850
aS'refrained'
p3851
aVhumane
p3852
aVendothermic
p3853
aS'packed'
p3854
aS'disjunct'
p3855
aVinvulnerable
p3856
aS'partisan'
p3857
aVinefficaciously
p3858
aVdematerialise
p3859
aVdiverge
p3860
aVperipherally
p3861
aVwritten
p3862
aS'unravel'
p3863
aVinjustice
p3864
aS'correctly'
p3865
aS'legitimize'
p3866
aS'email'
p3867
aVexoteric
p3868
aS'bought'
p3869
aVvariability
p3870
aS'comparable'
p3871
aS'faceless'
p3872
aVability
p3873
aVopening
p3874
aS'importance'
p3875
aVjoy
p3876
aS'sorrow'
p3877
aS'steepest'
p3878
aVefficiency
p3879
aVcomplicate
p3880
aVdisproportionately
p3881
aVoptional
p3882
aS'multiculturalism'
p3883
aS'declining'
p3884
aS'undetermined'
p3885
aS'unstoppable'
p3886
aVtrimmed
p3887
aVdiligent
p3888
aS'disobeyed'
p3889
aS'whispered'
p3890
aVequal
p3891
aVpowerless
p3892
aS'voiceless'
p3893
aVadmit
p3894
aS'busted'
p3895
aS'acyclic'
p3896
aVnontoxic
p3897
aVhighland
p3898
aS'decorum'
p3899
aS'glorious'
p3900
aS'unconvincing'
p3901
aS'withdraws'
p3902
aVroughen
p3903
aS'relevant'
p3904
aS'disenfranchised'
p3905
aS'illnesses'
p3906
aS'invasive'
p3907
aS'disservice'
p3908
aS'disarmament'
p3909
aS'paranormal'
p3910
aS'laity'
p3911
aVinvisible
p3912
aVlaugh
p3913
aS'kings'
p3914
aS'narrowed'
p3915
aS'crystalline'
p3916
aS'rougher'
p3917
aS'unclean'
p3918
aS'quit'
p3919
aS'protective'
p3920
aS'brotherly'
p3921
aS'subsurface'
p3922
aVdisintegrate
p3923
aS'deaths'
p3924
aS'covertly'
p3925
aS'conjoined'
p3926
aS'relying'
p3927
aS'validating'
p3928
aS'liberals'
p3929
aVoutflow
p3930
aVslowly
p3931
aVminimise
p3932
aVwinter_solstice
p3933
aS'hottest'
p3934
aVbottlefeed
p3935
aS'uplifted'
p3936
aVasymmetrically
p3937
aS'optionally'
p3938
aS'corresponding'
p3939
aVretrospective
p3940
aVsufficient
p3941
aS'coherence'
p3942
aS'varietal'
p3943
aVmeaningless
p3944
aS'bulk'
p3945
aVfinished
p3946
aVtense
p3947
aS'slowing'
p3948
aS'hateful'
p3949
aVelastic
p3950
aVimproved
p3951
aS'altruism'
p3952
aS'expounded'
p3953
aVvolunteer
p3954
aVanticatalyst
p3955
aS'debtor'
p3956
aVhypotension
p3957
aVtoothless
p3958
aS'unlike'
p3959
aVunenlightening
p3960
aS'asexual'
p3961
aS'slept'
p3962
aValign
p3963
aVappearance
p3964
aVsmokeless
p3965
aS'specifically'
p3966
aS'corresponded'
p3967
aS'inaccurately'
p3968
aS'depreciation'
p3969
aS'captors'
p3970
aS'hypertension'
p3971
aS'advisable'
p3972
aS'discontinuation'
p3973
aVnoticed
p3974
aS'amenity'
p3975
aS'parallelogram'
p3976
aS'ripe'
p3977
aS'resident'
p3978
aS'delaying'
p3979
aVdisapprove
p3980
aVsurface
p3981
aVimmoderately
p3982
aVhearten
p3983
aVoptimistic
p3984
aVmaladaptive
p3985
aS'claimed'
p3986
aVbloodless
p3987
aS'sits'
p3988
aVconserve
p3989
aVgreater
p3990
aVunfaithfully
p3991
aVuptime
p3992
aVincautiously
p3993
aS'productivity'
p3994
aVunacceptability
p3995
aVgeneric
p3996
aS'began'
p3997
aS'progressing'
p3998
aVindistinguishable
p3999
aVunite
p4000
aS'member'
p4001
aS'contraindications'
p4002
aS'concealed'
p4003
aS'strange'
p4004
aVbe_born
p4005
aVmerciful
p4006
aVunprophetic
p4007
aS'largest'
p4008
aS'soundness'
p4009
aS'complexities'
p4010
aVprivileged
p4011
aS'frivolous'
p4012
aVdifficult
p4013
aVinjured
p4014
aVunconventional
p4015
aS'emotionally'
p4016
aS'cubic'
p4017
aVeccentric
p4018
aVretarded
p4019
aVdisagree
p4020
aS'unsympathetic'
p4021
aS'diplomatically'
p4022
aVundescriptive
p4023
aVpolytheistic
p4024
aVunobvious
p4025
aVunclutter
p4026
aS'sisters'
p4027
aS'frequently'
p4028
aVwrongly
p4029
aVill-being
p4030
aVexpand
p4031
aS'energized'
p4032
aVoff
p4033
aVextramural
p4034
aVapprove
p4035
aS'disoriented'
p4036
aS'insurmountable'
p4037
aVreliableness
p4038
aS'oft'
p4039
aS'credibility'
p4040
aVdecentralization
p4041
aVexplicable
p4042
aVdiversify
p4043
aS'personalised'
p4044
aS'spherical'
p4045
aS'upgraded'
p4046
aS'taller'
p4047
aVarming
p4048
aVde-escalate
p4049
aS'accurate'
p4050
aVdomestic
p4051
aS'necessitate'
p4052
aVinadequate
p4053
aVlossy
p4054
aS'distant'
p4055
aS'scholarly'
p4056
aS'merge'
p4057
aVgeneric_wine
p4058
aVoutbred
p4059
aS'dissuaded'
p4060
aS'unplugged'
p4061
aVconsume
p4062
aS'generous'
p4063
aS'kindness'
p4064
aVclergyman
p4065
aS'intercontinental'
p4066
aS'residential'
p4067
aVpassively
p4068
aS'unsigned'
p4069
aS'capabilities'
p4070
aVadd
p4071
aS'valid'
p4072
aS'attractive'
p4073
aVmeagerly
p4074
aVcitizen
p4075
aS'unprecedented'
p4076
aVomnidirectional
p4077
aS'characteristically'
p4078
aVsonic
p4079
aS'increased'
p4080
aVample
p4081
aS'disappearance'
p4082
aVsolvency
p4083
aVcriminalize
p4084
aVunbalance
p4085
aVknot
p4086
aS'resolves'
p4087
aS'securities'
p4088
aVamply
p4089
aS'passable'
p4090
aVdescendant
p4091
aVcauline
p4092
aS'unusually'
p4093
aS'necessary'
p4094
aVlike
p4095
aS'excluding'
p4096
aVdepersonalise
p4097
aS'safest'
p4098
aVinfeasibility
p4099
aVqualitative
p4100
aS'admitted'
p4101
aS'loses'
p4102
aS'payments'
p4103
aS'conscripts'
p4104
aS'lose'
p4105
aVdivest
p4106
aVsoft
p4107
aS'inexperienced'
p4108
aVaccessible
p4109
aVoutfield
p4110
aVnonspherical
p4111
aVirresponsibly
p4112
aVwindward
p4113
aS'freshness'
p4114
aS'upgrades'
p4115
aS'alive'
p4116
aVfresh_water
p4117
aS'corroborate'
p4118
aS'daylight'
p4119
aS'growth'
p4120
aVexport
p4121
aVnonslippery
p4122
aVconvex
p4123
aS'proper'
p4124
aVwieldy
p4125
aS'liking'
p4126
aS'supportive'
p4127
aVemployment
p4128
aVvarietal_wine
p4129
aVcontested
p4130
aVindefinite
p4131
aVineligibility
p4132
aVunpredictable
p4133
aVliterally
p4134
aS'avoid'
p4135
aVlegato
p4136
aS'rewarding'
p4137
aVoutgo
p4138
aVinaccessibility
p4139
aVnonfinancial
p4140
aS'gabled'
p4141
aS'salaried'
p4142
aVimpolitely
p4143
aVnonviolently
p4144
aVleader
p4145
aVungraciously
p4146
aVobey
p4147
aVincorrectness
p4148
aS'silencing'
p4149
aVdownmarket
p4150
aVhost
p4151
aS'unambiguously'
p4152
aS'prohibited'
p4153
aVunsuitability
p4154
aVhospitable
p4155
aVnonconformity
p4156
aS'adversary'
p4157
aVincomparable
p4158
aVinconsiderate
p4159
aS'sister'
p4160
aS'actual'
p4161
aVlinger
p4162
aVcertainty
p4163
aS'ingest'
p4164
aS'compatible'
p4165
aS'blessings'
p4166
aVtoadstool
p4167
aS'blackness'
p4168
aS'seedy'
p4169
aVupward
p4170
aS'eloquently'
p4171
aS'software'
p4172
aS'outset'
p4173
aS'stator'
p4174
aS'faithfulness'
p4175
aVnontranslational
p4176
aS'unfavourable'
p4177
aVunbox
p4178
aS'booed'
p4179
aS'functional'
p4180
aVlow_quality
p4181
aS'mushrooms'
p4182
aS'chronic'
p4183
aS'undefeated'
p4184
aS'female'
p4185
aS'lawful'
p4186
aVnegate
p4187
aVpervious
p4188
aVforceless
p4189
aS'pointless'
p4190
aVimproperness
p4191
aVunfashionable
p4192
aVantitype
p4193
aS'terminated'
p4194
aVimpatience
p4195
aS'matching'
p4196
aS'rushed'
p4197
aS'egalitarian'
p4198
aS'airworthy'
p4199
aS'weeps'
p4200
aS'reduction'
p4201
aVdisapproval
p4202
aS'smoothing'
p4203
aVoverestimate
p4204
aVspread
p4205
aS'figuratively'
p4206
aVinvisibility
p4207
aS'resists'
p4208
aS'heresy'
p4209
aS'upwards'
p4210
aS'naturally'
p4211
aVfunction
p4212
aS'fiscal'
p4213
aVbuy
p4214
aVelate
p4215
aVdestructible
p4216
aVunwrap
p4217
aS'believe'
p4218
aS'blaming'
p4219
aS'subjective'
p4220
aVinsured
p4221
aS'hierarchical'
p4222
aVgain
p4223
aVflexible
p4224
aS'highest'
p4225
aS'superhuman'
p4226
aS'partially'
p4227
aS'boarding'
p4228
aVwise
p4229
aS'absence'
p4230
aS'richly'
p4231
aS'demilitarized'
p4232
aVdangerous
p4233
aVofficial
p4234
aVsmooth
p4235
aVsigned
p4236
aS'imbalances'
p4237
aS'below'
p4238
aVintangible
p4239
aS'woke'
p4240
aVmake_peace
p4241
aVdistribution
p4242
aVunhook
p4243
aS'strengthens'
p4244
aS'rightly'
p4245
aS'repelled'
p4246
aVdestabilise
p4247
aVwhisper
p4248
aS'topless'
p4249
aS'exogenous'
p4250
aVunselfishness
p4251
aS'worthiness'
p4252
aVfemale_monarch
p4253
aS'highlighted'
p4254
aVwell-defined
p4255
aVgoodness
p4256
aVunprintable
p4257
aS'permeability'
p4258
aS'anaerobic'
p4259
aS'unintelligible'
p4260
aS'improving'
p4261
aS'relaxing'
p4262
aS'incredible'
p4263
aS'fortunate'
p4264
aS'dressed'
p4265
aS'claiming'
p4266
aVsubsonic
p4267
aS'detain'
p4268
aVactiveness
p4269
aVamateur
p4270
aS'other'
p4271
aS'misconceptions'
p4272
aS'repute'
p4273
aS'incredibly'
p4274
aValkaline
p4275
aVunintelligibly
p4276
aS'illegally'
p4277
aS'colonized'
p4278
aS'worker'
p4279
aS'exothermic'
p4280
aS'dismantle'
p4281
aVthin_person
p4282
aS'enlargement'
p4283
aS'sped'
p4284
aS'earthly'
p4285
aS'inboard'
p4286
aVveil
p4287
aVirrationally
p4288
aS'opened'
p4289
aVunlikeliness
p4290
aS'clergymen'
p4291
aVintentionally
p4292
aS'atheism'
p4293
aS'undemocratic'
p4294
aS'uneducated'
p4295
aS'rural'
p4296
aS'denies'
p4297
aS'expands'
p4298
aS'indirectly'
p4299
aVuntalented
p4300
aVincapability
p4301
atp4302
Rp4303
.