(dp0
Vlimited
p1
I0
sS'unscientific'
p2
I1
sS'similarity'
p3
I3
sVinadequacy
p4
I1422
sS'assembles'
p5
I5
sVchild
p6
I6
sS'desirable'
p7
I7
sS'all'
p8
I2116
sVprefix
p9
I9
sVsleep
p10
I10
sVheliocentric
p11
I11
sVcontroversial
p12
I12
sS'hating'
p13
I13
sS'woody'
p14
I14
sVadvertently
p15
I16
sVhate
p16
I17
sS'assembled'
p17
I18
sS'disobeying'
p18
I20
sS'fronts'
p19
I21
sS'violate'
p20
I22
sS'granting'
p21
I23
sVeligible
p22
I24
sS'ventral'
p23
I25
sS'stinky'
p24
I26
sS'leeward'
p25
I27
sVinhospitality
p26
I28
sVsupported
p27
I3751
sVunsuitableness
p28
I29
sVthinness
p29
I30
sS'unnecessarily'
p30
I2822
sS'alphabetic'
p31
I32
sVlord
p32
I33
sS'sorry'
p33
I34
sS'pride'
p34
I35
sVdivergent
p35
I36
sVdenationalise
p36
I37
sVnonresident
p37
I38
sS'downstream'
p38
I40
sS'unsold'
p39
I41
sS'aurora'
p40
I42
sVrise
p41
I43
sS'connects'
p42
I44
sS'eugenics'
p43
I46
sVdisobedient
p44
I47
sS'softened'
p45
I278
sS'govern'
p46
I49
sS'unify'
p47
I2826
sS'hairless'
p48
I51
sS'courageous'
p49
I52
sS'bravest'
p50
I2126
sS'wooded'
p51
I54
sVirresoluteness
p52
I55
sVinternally
p53
I56
sS'exaggerate'
p54
I57
sS'clothed'
p55
I58
sVupload
p56
I59
sS'integrated'
p57
I3574
sVadmissible
p58
I61
sS'unrelated'
p59
I62
sS'remoteness'
p60
I63
sVinutility
p61
I64
sS'employees'
p62
I131
sS'abolishing'
p63
I66
sS'unauthorised'
p64
I67
sS'immunities'
p65
I68
sVstraight
p66
I2829
sS'triumph'
p67
I70
sVenjoy
p68
I71
sVdistributary
p69
I72
sVcivility
p70
I2830
sS'nigh'
p71
I74
sS'concise'
p72
I75
sS'awake'
p73
I4294
sS'razed'
p74
I76
sVconsistent
p75
I77
sS'midsummer'
p76
I79
sVget_off
p77
I80
sVlouden
p78
I81
sS'feasibility'
p79
I82
sVundynamic
p80
I83
sS'likely'
p81
I84
sS'louder'
p82
I39
sS'follow'
p83
I2133
sS'consenting'
p84
I86
sVunscalable
p85
I4094
sS'emptiness'
p86
I87
sS'colourful'
p87
I88
sS'inanimate'
p88
I89
sVeven
p89
I90
sS'established'
p90
I91
sS'oldest'
p91
I92
sVinelegance
p92
I93
sS'unlisted'
p93
I94
sVincompatible
p94
I95
sS'declassified'
p95
I96
sS'minuscule'
p96
I97
sS'profitability'
p97
I98
sVunpreventable
p98
I99
sVunwholesome
p99
I100
sVunskilled
p100
I101
sS'irrevocable'
p101
I102
sS'establishes'
p102
I103
sS'new'
p103
I104
sVnet
p104
I105
sS'increasing'
p105
I106
sVever
p106
I107
sVspecialist
p107
I109
sVnever
p108
I112
sS'richest'
p109
I113
sVhere
p110
I114
sVinferiority
p111
I3584
sVanticlimactic
p112
I116
sVreported
p113
I117
sVasymmetry
p114
I118
sVhumility
p115
I119
sS'shortness'
p116
I121
sVconform_to
p117
I122
sVorthodoxy
p118
I123
sVcontraction
p119
I124
sS'borrowers'
p120
I125
sS'cyclical'
p121
I126
sVdaughter
p122
I127
sVinefficiently
p123
I128
sVsuitably
p124
I129
sVunstableness
p125
I130
sS'smoky'
p126
I65
sVchanged
p127
I132
sVperinatal
p128
I133
sS'foolishness'
p129
I134
sVcredit
p130
I136
sVmonogamous
p131
I137
sVsymmetrical
p132
I138
sVextrospective
p133
I139
sS'leaved'
p134
I141
sVhydrophobic
p135
I142
sS'appropriately'
p136
I144
sVsecure
p137
I145
sS'subtracts'
p138
I146
sS'elaborated'
p139
I809
sVdiscontinuous
p140
I148
sS'servicemen'
p141
I149
sVinequitable
p142
I150
sS'lengthen'
p143
I151
sS'objectively'
p144
I152
sS'elaborates'
p145
I153
sS'patience'
p146
I154
sVunretentive
p147
I155
sVmoral
p148
I157
sS'romantically'
p149
I158
sS'linearly'
p150
I159
sVsexual
p151
I4259
sS'disappearances'
p152
I160
sS'stabilized'
p153
I3382
sS'insecurity'
p154
I161
sVunrighteousness
p155
I162
sS'negative'
p156
I163
sS'lessening'
p157
I164
sS'enriching'
p158
I260
sVoverhead
p159
I166
sVcalm
p160
I167
sS'sexy'
p161
I3300
sS'leaky'
p162
I168
sS'type'
p163
I169
sS'females'
p164
I171
sS'harden'
p165
I3949
sVholy
p166
I172
sS'relax'
p167
I173
sS'successful'
p168
I174
sVdissimilitude
p169
I175
sS'demoted'
p170
I176
sS'aware'
p171
I178
sS'deciduous'
p172
I179
sVreversible
p173
I180
sVadult
p174
I181
sVunstrap
p175
I182
sVlawlessly
p176
I183
sS'continual'
p177
I184
sVhold
p178
I185
sVunpack
p179
I1086
sS'slowest'
p180
I187
sS'harnessing'
p181
I188
sS'segregated'
p182
I3599
sS'abundance'
p183
I190
sVflora
p184
I191
sS'locked'
p185
I192
sS'cheapest'
p186
I193
sS'refusing'
p187
I194
sS'immutable'
p188
I2147
sVpay_up
p189
I197
sS'transparency'
p190
I1168
sS'concepts'
p191
I199
sS'criticizing'
p192
I200
sS'elegantly'
p193
I201
sS'centralization'
p194
I202
sS'addictive'
p195
I203
sS'loosen'
p196
I204
sS'unmarked'
p197
I1215
sS'joyous'
p198
I206
sS'unjust'
p199
I207
sS'preserving'
p200
I1233
sVassent
p201
I209
sS'heartless'
p202
I210
sVnonarbitrary
p203
I3631
sVpowerfulness
p204
I211
sS'certifications'
p205
I3597
sS'fronting'
p206
I212
sS'caution'
p207
I1257
sVuntruthful
p208
I214
sS'validated'
p209
I215
sS'attract'
p210
I216
sS'looser'
p211
I217
sS'unforgettable'
p212
I218
sValienable
p213
I219
sVend
p214
I221
sS'intoxicated'
p215
I3605
sS'enquiry'
p216
I223
sVimprecision
p217
I224
sS'drying'
p218
I225
sS'grammatically'
p219
I226
sS'disappear'
p220
I227
sS'significance'
p221
I228
sVanswer
p222
I229
sVordinary
p223
I230
sS'ancestor'
p224
I231
sS'truthful'
p225
I232
sVactivation
p226
I233
sVclassify
p227
I234
sS'retreating'
p228
I1459
sVlegless
p229
I236
sS'competency'
p230
I3695
sS'commencing'
p231
I238
sVuselessness
p232
I239
sVminority
p233
I240
sVbeauty
p234
I241
sVdisassemble
p235
I242
sVunfitness
p236
I243
sVinessential
p237
I244
sS'loyalty'
p238
I245
sS'outlawed'
p239
I246
sS'violates'
p240
I1658
sS'modest'
p241
I247
sVunangry
p242
I2859
sVungracefully
p243
I248
sS'minimizes'
p244
I251
sVunselfish
p245
I252
sVantonym
p246
I253
sS'types'
p247
I254
sS'unfamiliarity'
p248
I255
sVinactivity
p249
I256
sS'strapping'
p250
I2405
sVeffective
p251
I259
sVnoxious
p252
I4190
sS'attracts'
p253
I261
sS'acknowledged'
p254
I262
sS'descends'
p255
I263
sS'fictional'
p256
I264
sS'capitalism'
p257
I265
sVsoberness
p258
I267
sS'complexity'
p259
I268
sS'nascent'
p260
I269
sVgreen
p261
I270
sVultimate
p262
I271
sVpartly
p263
I4251
sS'decreasing'
p264
I339
sS'uninsured'
p265
I273
sVpreventive
p266
I274
sVdemocratic
p267
I275
sS'invariance'
p268
I2513
sVdeterminate
p269
I276
sS'modesty'
p270
I277
sVnontaxable
p271
I48
sS'rudely'
p272
I3613
sVunworthiness
p273
I281
sVupstream
p274
I282
sS'inconclusive'
p275
I283
sS'undetected'
p276
I284
sVproportionate
p277
I285
sS'synonyms'
p278
I286
sS'fortify'
p279
I287
sVresponsive
p280
I288
sS'residents'
p281
I3321
sS'rewarded'
p282
I289
sS'partisans'
p283
I290
sS'wrought'
p284
I291
sVsuffix
p285
I3616
sS'difference'
p286
I2163
sS'directional'
p287
I294
sVpersonal
p288
I295
sVregress
p289
I2347
sS'blackened'
p290
I298
sVbetter
p291
I299
sVimplausibility
p292
I300
sS'narrowest'
p293
I301
sVcomplex
p294
I302
sS'understated'
p295
I303
sS'distal'
p296
I1469
sS'nobles'
p297
I306
sS'hidden'
p298
I307
sS'easier'
p299
I308
sVillegitimately
p300
I309
sVmaximal
p301
I310
sVincongruous
p302
I1470
sVaffected
p303
I312
sS'woken'
p304
I313
sS'enrich'
p305
I314
sVsafe
p306
I315
sVdifferentiated
p307
I316
sVbreak
p308
I317
sS'emigrated'
p309
I318
sVcolourless
p310
I320
sS'clogging'
p311
I321
sVillegitimacy
p312
I322
sS'multidimensional'
p313
I323
sS'undeveloped'
p314
I324
sS'saddened'
p315
I325
sS'unregistered'
p316
I326
sS'photosynthetic'
p317
I327
sS'brightness'
p318
I328
sS'regularly'
p319
I3782
sS'reasonably'
p320
I329
sVdemerit
p321
I330
sVpoor_people
p322
I331
sVproperness
p323
I332
sS'victories'
p324
I333
sVvictory
p325
I334
sS'reasonable'
p326
I335
sS'fitness'
p327
I336
sVunintelligent
p328
I3962
sS'went'
p329
I337
sS'loyalties'
p330
I338
sVnoncompliance
p331
I340
sS'associative'
p332
I341
sVpowerlessness
p333
I2876
sS'preceded'
p334
I343
sS'financial'
p335
I344
sVweightless
p336
I345
sVinnocent
p337
I346
sS'parasites'
p338
I347
sVanovulation
p339
I2692
sS'depositing'
p340
I348
sS'precedes'
p341
I349
sS'forgot'
p342
I350
sS'ameliorate'
p343
I351
sS'dawn'
p344
I352
sS'comedies'
p345
I353
sVnonexistence
p346
I355
sVdepress
p347
I357
sS'filial'
p348
I3623
sS'unbound'
p349
I358
sVrestricted
p350
I359
sVinaccurate
p351
I4137
sS'hooked'
p352
I361
sS'integrative'
p353
I362
sS'strangers'
p354
I363
sS'forte'
p355
I364
sS'debit'
p356
I366
sVheavenly
p357
I367
sS'disagreements'
p358
I369
sS'exothermic'
p359
I4274
sVungregarious
p360
I2882
sVlinear
p361
I371
sVcolorless
p362
I372
sVanalphabetic
p363
I373
sVfree
p364
I374
sS'differing'
p365
I375
sVsensory
p366
I376
sS'unconvinced'
p367
I377
sVnecessarily
p368
I1485
sS'homologous'
p369
I379
sS'corrects'
p370
I380
sS'enlightened'
p371
I381
sS'lineal'
p372
I382
sS'incorporates'
p373
I383
sS'loosened'
p374
I2853
sS'laymen'
p375
I3857
sS'inexpensive'
p376
I384
sS'correctness'
p377
I385
sS'tolerant'
p378
I386
sS'smokers'
p379
I387
sS'incorporated'
p380
I388
sVineffectively
p381
I389
sS'loudness'
p382
I390
sS'loud'
p383
I391
sS'truthfulness'
p384
I392
sS'wronged'
p385
I393
sS'attractions'
p386
I394
sS'synonymous'
p387
I395
sS'trusting'
p388
I3681
sVlarboard
p389
I396
sVlovable
p390
I397
sS'synthesize'
p391
I398
sVinharmonious
p392
I399
sVdependableness
p393
I734
sS'awoke'
p394
I401
sS'palpable'
p395
I402
sVdisembark
p396
I403
sS'clarity'
p397
I404
sS'caloric'
p398
I405
sS'encodes'
p399
I1565
sVnonrandom
p400
I2183
sVseamed
p401
I762
sVservice
p402
I408
sVunrepeatable
p403
I410
sVdissimilarity
p404
I2891
sS'defaulting'
p405
I413
sS'indeterminate'
p406
I414
sS'equilibria'
p407
I415
sVdownwardly
p408
I416
sVcentripetal
p409
I417
sS'needed'
p410
I418
sS'confirming'
p411
I419
sVlisted
p412
I420
sVinconvenient
p413
I421
sS'unbroken'
p414
I422
sS'inflow'
p415
I423
sS'consented'
p416
I424
sVurban
p417
I425
sVdecentralize
p418
I426
sVindiscreet
p419
I427
sS'asset'
p420
I428
sS'happily'
p421
I429
sS'esoteric'
p422
I430
sS'conspicuously'
p423
I431
sS'rejected'
p424
I432
sS'onshore'
p425
I2185
sVunmindfulness
p426
I434
sS'repeatable'
p427
I435
sS'predictable'
p428
I436
sS'defaulted'
p429
I437
sS'wasted'
p430
I438
sS'requisite'
p431
I439
sVnonpartisan
p432
I440
sVdesynchronise
p433
I441
sS'finitely'
p434
I442
sS'recto'
p435
I443
sS'elegant'
p436
I444
sVdivisible
p437
I445
sS'conforms'
p438
I446
sVoutlaw
p439
I447
sS'legalize'
p440
I448
sS'enabled'
p441
I449
sS'omnivorous'
p442
I450
sVidle
p443
I452
sVpersuade
p444
I85
sS'guilt'
p445
I454
sS'historical'
p446
I455
sS'enables'
p447
I457
sS'powers'
p448
I458
sS'colonizing'
p449
I459
sS'unintended'
p450
I462
sS'forfeited'
p451
I2899
sVwillingness
p452
I464
sS'respecting'
p453
I465
sVunchaste
p454
I466
sVpessimism
p455
I467
sS'elevating'
p456
I468
sS'untrained'
p457
I469
sVantagonistic
p458
I470
sS'enchanted'
p459
I471
sVpessimist
p460
I472
sS'increment'
p461
I473
sS'rotors'
p462
I474
sS'unaffected'
p463
I475
sS'leafy'
p464
I476
sVunfasten
p465
I477
sS'praising'
p466
I479
sS'quieter'
p467
I480
sVsterile
p468
I481
sS'wholesome'
p469
I482
sS'reactive'
p470
I3774
sS'convenient'
p471
I483
sVlatter
p472
I484
sS'responsible'
p473
I485
sVdevolution
p474
I486
sS'impotent'
p475
I487
sS'upholding'
p476
I488
sS'toothed'
p477
I489
sVdisunify
p478
I490
sS'responsibly'
p479
I491
sS'effectiveness'
p480
I492
sVimprudent
p481
I493
sS'unoccupied'
p482
I3650
sS'disembarking'
p483
I495
sS'detained'
p484
I1044
sVtimidity
p485
I497
sVunmindful
p486
I498
sS'diminishing'
p487
I499
sVrepatriate
p488
I1499
sS'simplify'
p489
I501
sS'immediacy'
p490
I502
sVdisenfranchisement
p491
I503
sS'imported'
p492
I2196
sS'colonize'
p493
I3534
sS'disarmed'
p494
I506
sVunknowingly
p495
I507
sS'morality'
p496
I508
sS'constancy'
p497
I509
sS'mobilised'
p498
I510
sS'classicist'
p499
I512
sS'antagonist'
p500
I3799
sS'soften'
p501
I3546
sVworsen
p502
I513
sVorderly
p503
I514
sS'reputation'
p504
I515
sS'aunt'
p505
I516
sS'inaccuracies'
p506
I517
sS'maxima'
p507
I783
sS'purged'
p508
I519
sS'came'
p509
I520
sS'classicism'
p510
I521
sS'discontent'
p511
I522
sS'departing'
p512
I524
sS'reductions'
p513
I525
sVqueen
p514
I526
sVdiscourteously
p515
I2908
sVambiguously
p516
I527
sVending
p517
I528
sS'undue'
p518
I529
sVsoluble
p519
I530
sS'abilities'
p520
I2909
sS'slightest'
p521
I3316
sS'respectfully'
p522
I533
sS'synergistic'
p523
I3657
sS'falsehoods'
p524
I535
sVnephew
p525
I536
sS'expediency'
p526
I3635
sVattend_to
p527
I538
sS'sunsets'
p528
I539
sS'resisting'
p529
I540
sS'consciousness'
p530
I541
sVstraight_line
p531
I542
sVgrassless
p532
I543
sVlayman
p533
I544
sS'elucidated'
p534
I545
sS'deepest'
p535
I546
sS'rich'
p536
I547
sVintegrate
p537
I548
sVsubhuman
p538
I549
sS'adequate'
p539
I550
sVdullness
p540
I551
sS'nullified'
p541
I552
sS'borrowed'
p542
I553
sS'exports'
p543
I554
sVabove
p544
I555
sVcolorful
p545
I556
sS'criticizes'
p546
I557
sS'altruistic'
p547
I2915
sS'vowels'
p548
I559
sS'scalable'
p549
I560
sS'simpler'
p550
I4149
sS'criticized'
p551
I561
sS'shutting'
p552
I562
sS'sequestration'
p553
I563
sVborrower
p554
I564
sS'downtime'
p555
I565
sS'impractical'
p556
I1509
sVnasty
p557
I567
sVunemotionally
p558
I568
sS'considerate'
p559
I569
sVaestivate
p560
I570
sS'infrequent'
p561
I571
sS'textbooks'
p562
I572
sS'officially'
p563
I573
sVsour
p564
I3284
sVegoism
p565
I574
sS'bad'
p566
I575
sVsoftly
p567
I576
sVunsensational
p568
I577
sS'analytical'
p569
I578
sS'sanctioning'
p570
I579
sS'freshwater'
p571
I580
sVenchant
p572
I651
sVfragrant
p573
I583
sS'unworthy'
p574
I584
sS'comprehensively'
p575
I2921
sVfair
p576
I586
sS'clarified'
p577
I587
sVsensitivity
p578
I588
sS'resist'
p579
I589
sVsubartesian
p580
I590
sVnontraditional
p581
I591
sVfail
p582
I593
sVsporadic
p583
I594
sVnocturnal
p584
I595
sVsofthearted
p585
I596
sS'incorporating'
p586
I598
sS'clarifies'
p587
I599
sS'embarks'
p588
I2846
sS'capacity'
p589
I600
sS'inappropriate'
p590
I601
sVafloat
p591
I602
sS'artificial'
p592
I604
sVpaternal
p593
I605
sS'symmetric'
p594
I606
sVimplicit
p595
I3303
sVunable
p596
I609
sS'alignment'
p597
I2925
sS'cooperation'
p598
I611
sS'hopefully'
p599
I612
sS'conductive'
p600
I613
sS'drawn'
p601
I614
sVhydrokinetic
p602
I615
sS'polygamous'
p603
I616
sVlethargic
p604
I617
sS'indecisive'
p605
I618
sS'accord'
p606
I619
sS'replaceable'
p607
I2210
sVdisagreeableness
p608
I621
sVwanted
p609
I2261
sVundependably
p610
I622
sS'packaged'
p611
I624
sS'weary'
p612
I625
sVunfold
p613
I626
sVcontamination
p614
I627
sVdowngrade
p615
I628
sVcarnivorous
p616
I629
sVundependable
p617
I630
sVuncreative
p618
I631
sS'downgraded'
p619
I632
sS'improve'
p620
I633
sVfaced
p621
I634
sS'disorderly'
p622
I636
sS'corroborated'
p623
I2931
sVagonist
p624
I638
sS'favourable'
p625
I2213
sVunregretful
p626
I640
sS'uncertainty'
p627
I642
sS'disengage'
p628
I643
sVenthrone
p629
I4235
sVplanned
p630
I644
sS'incapacitated'
p631
I3769
sVrich_people
p632
I646
sS'disappears'
p633
I647
sS'con'
p634
I648
sS'widen'
p635
I649
sS'abbreviate'
p636
I650
sS'honouring'
p637
I652
sVirresponsible
p638
I653
sS'nonconformist'
p639
I654
sS'occupants'
p640
I655
sS'unprotected'
p641
I657
sS'deciphering'
p642
I1523
sS'comprehension'
p643
I659
sS'applicability'
p644
I660
sS'wider'
p645
I661
sS'symmetries'
p646
I3679
sVtrust
p647
I663
sS'gratitude'
p648
I664
sS'broadening'
p649
I665
sS'petty'
p650
I666
sS'immobile'
p651
I667
sVincomparable
p652
I196
sS'puts'
p653
I669
sVmobilization
p654
I670
sVunion
p655
I671
sS'mindfulness'
p656
I1526
sS'criticised'
p657
I673
sS'erect'
p658
I674
sS'particulars'
p659
I675
sS'confident'
p660
I676
sVmuch
p661
I677
sVinterest
p662
I679
sVexpected
p663
I680
sVdeliberately
p664
I2940
sS'criticises'
p665
I682
sS'tallest'
p666
I683
sVincompetent
p667
I684
sVunsupportive
p668
I685
sVdry
p669
I686
sS'deeper'
p670
I687
sS'mushroom'
p671
I688
sS'attacked'
p672
I689
sVinattention
p673
I690
sVimpermanence
p674
I691
sS'uncommon'
p675
I692
sS'relevance'
p676
I2942
sS'coherent'
p677
I694
sVimmunocompetence
p678
I1529
sS'doubts'
p679
I696
sS'niece'
p680
I2949
sS'downplay'
p681
I698
sVmaximally
p682
I699
sVcensored
p683
I700
sVdisarrange
p684
I701
sS'gracious'
p685
I702
sVunpopular
p686
I703
sVunexpansive
p687
I2625
sVjuiceless
p688
I1505
sVdeodorize
p689
I704
sS'publicly'
p690
I705
sS'affirm'
p691
I706
sVilliteracy
p692
I707
sS'unwillingness'
p693
I708
sS'lessen'
p694
I709
sS'newest'
p695
I4032
sS'employ'
p696
I712
sS'ugly'
p697
I713
sVunintrusive
p698
I3687
sS'unloading'
p699
I2948
sS'wildest'
p700
I3388
sVbalance
p701
I715
sVprecede
p702
I716
sS'launched'
p703
I717
sS'weakens'
p704
I140
sS'pessimistic'
p705
I719
sS'cons'
p706
I721
sS'provocative'
p707
I723
sS'cyclones'
p708
I724
sVrecuperate
p709
I726
sVunicameral
p710
I727
sVnoninheritable
p711
I728
sVdefeated
p712
I729
sVconditioned
p713
I730
sS'obeying'
p714
I731
sS'complicates'
p715
I2529
sVpenetrable
p716
I732
sS'exterior'
p717
I735
sVunenterprising
p718
I736
sVnoncompetitive
p719
I737
sS'trusted'
p720
I739
sS'overstated'
p721
I740
sS'confirmed'
p722
I741
sVdescent
p723
I742
sS'fatal'
p724
I3227
sVundesirous
p725
I744
sS'ignited'
p726
I3736
sVdescend
p727
I745
sVunfortunate
p728
I746
sVincorrectly
p729
I747
sS'avoids'
p730
I748
sS'success'
p731
I4084
sS'ingested'
p732
I749
sS'capacities'
p733
I2958
sS'fairly'
p734
I751
sS'boiled'
p735
I752
sVsame
p736
I3805
sS'inadvertently'
p737
I753
sS'prohibits'
p738
I237
sS'progressed'
p739
I755
sVpermit
p740
I756
sS'closings'
p741
I757
sS'monotonic'
p742
I758
sVfuse
p743
I759
sVrehabilitative
p744
I760
sS'selfless'
p745
I761
sS'energetic'
p746
I3159
sS'overt'
p747
I407
sS'blamed'
p748
I763
sS'minimally'
p749
I3697
sVweakly
p750
I765
sS'maximizing'
p751
I766
sVunreactive
p752
I767
sS'auspicious'
p753
I768
sS'noblewoman'
p754
I769
sS'unconditionally'
p755
I770
sS'forceful'
p756
I771
sVhumble
p757
I772
sS'uploading'
p758
I773
sS'smoker'
p759
I774
sVapprobation
p760
I775
sVaccompanied
p761
I4063
sVunadventurous
p762
I777
sVincapable
p763
I778
sVmother
p764
I779
sS'quantitative'
p765
I780
sVuncivilly
p766
I781
sS'fittest'
p767
I782
sS'left'
p768
I518
sS'unified'
p769
I784
sVbackground
p770
I785
sS'just'
p771
I786
sVunemployment
p772
I787
sS'yea'
p773
I788
sS'upgrading'
p774
I789
sS'warmest'
p775
I790
sVunfair
p776
I791
sVinelasticity
p777
I792
sS'homogeneity'
p778
I793
sVassigned
p779
I794
sS'unassigned'
p780
I795
sS'thicker'
p781
I4069
sVfullness
p782
I796
sS'uncooperative'
p783
I797
sS'breaching'
p784
I798
sS'depart'
p785
I2244
sS'yes'
p786
I800
sS'succeeding'
p787
I802
sVdivide
p788
I803
sS'adding'
p789
I804
sS'enters'
p790
I805
sVinfinitely
p791
I806
sS'similarities'
p792
I807
sS'ease'
p793
I808
sS'mobility'
p794
I147
sS'insubordination'
p795
I810
sS'passive'
p796
I811
sS'criticise'
p797
I812
sVshout
p798
I813
sVinconclusively
p799
I814
sS'obedient'
p800
I815
sS'justices'
p801
I816
sVcowardly
p802
I2247
sS'ascents'
p803
I819
sS'righteous'
p804
I820
sVtolerable
p805
I821
sVnonradioactive
p806
I822
sS'submissive'
p807
I823
sS'insensitive'
p808
I824
sS'boxed'
p809
I825
sS'involuntary'
p810
I826
sS'infield'
p811
I827
sVdisagreement
p812
I828
sVinaptitude
p813
I829
sS'visibly'
p814
I830
sS'unequivocally'
p815
I831
sVpossibly
p816
I832
sVunwrap
p817
I4210
sS'discreet'
p818
I833
sS'descending'
p819
I834
sS'roughness'
p820
I3483
sVbirth
p821
I835
sVunlikely
p822
I836
sS'sanitary'
p823
I837
sS'erected'
p824
I838
sS'advanced'
p825
I839
sVdisadvantage
p826
I840
sS'sorrows'
p827
I841
sS'intertwined'
p828
I842
sVprecise
p829
I1585
sS'visible'
p830
I843
sS'dishonest'
p831
I844
sS'specifics'
p832
I1347
sS'specific'
p833
I846
sVinformative
p834
I847
sS'disillusioned'
p835
I848
sS'night'
p836
I849
sS'evolutions'
p837
I850
sVsecurity
p838
I851
sS'toughest'
p839
I3711
sS'cooled'
p840
I853
sS'cowardice'
p841
I854
sVmaximize
p842
I3897
sVright
p843
I855
sVold
p844
I856
sS'aptitude'
p845
I2254
sVflatter
p846
I858
sS'successfully'
p847
I859
sS'proportionally'
p848
I861
sVisotropy
p849
I845
sVborn
p850
I863
sVnonmember
p851
I864
sVinsincerely
p852
I865
sS'warring'
p853
I866
sS'straightening'
p854
I1555
sVanimate
p855
I868
sS'repelling'
p856
I869
sS'insufficient'
p857
I4160
sVnobleman
p858
I871
sVignore
p859
I2979
sS'participations'
p860
I873
sVunambitious
p861
I874
sS'establish'
p862
I2258
sVnormal
p863
I1556
sS'daytime'
p864
I877
sS'creative'
p865
I878
sVnonthermal
p866
I879
sS'disheartened'
p867
I880
sS'honoured'
p868
I881
sS'denied'
p869
I882
sVintolerant
p870
I883
sVconvict
p871
I884
sVsubordination
p872
I885
sS'disliking'
p873
I3229
sS'participation'
p874
I886
sS'palatable'
p875
I887
sS'knew'
p876
I1558
sS'algorithmic'
p877
I889
sS'memorably'
p878
I890
sS'minimization'
p879
I891
sVdeflation
p880
I892
sS'elucidate'
p881
I893
sS'arbitrary'
p882
I894
sS'outdoor'
p883
I3027
sS'disappeared'
p884
I895
sS'stylish'
p885
I2987
sS'losing'
p886
I898
sS'tasty'
p887
I3953
sS'descendent'
p888
I899
sS'permitted'
p889
I900
sS'dead'
p890
I901
sS'wept'
p891
I902
sVhard
p892
I2436
sS'inedible'
p893
I904
sS'conceal'
p894
I905
sS'citizens'
p895
I906
sS'accepts'
p896
I907
sVtrustworthy
p897
I908
sS'undocumented'
p898
I909
sS'plus'
p899
I910
sS'lacked'
p900
I1300
sVexperienced
p901
I3000
sVindecency
p902
I1333
sVpresence
p903
I915
sVcivil
p904
I916
sVwittingly
p905
I4126
sS'delighted'
p906
I917
sS'naturalized'
p907
I918
sVson
p908
I919
sVdown
p909
I920
sS'thankful'
p910
I921
sS'beings'
p911
I922
sVinapplicability
p912
I923
sVcoastal
p913
I924
sS'dissenting'
p914
I925
sVimpartiality
p915
I914
sS'intermarriage'
p916
I927
sS'defendants'
p917
I928
sS'yin'
p918
I1487
sS'unambiguous'
p919
I929
sVinfidelity
p920
I930
sS'rely'
p921
I931
sS'cleared'
p922
I1568
sVcompression
p923
I933
sVreal
p924
I3051
sS'indispensable'
p925
I935
sS'substantiate'
p926
I3601
sS'unfocused'
p927
I937
sS'corporeal'
p928
I938
sVtame
p929
I939
sS'stuck'
p930
I940
sVauthorized
p931
I942
sS'playful'
p932
I3800
sS'accords'
p933
I944
sVuntie
p934
I945
sVunpretentious
p935
I946
sVwar
p936
I947
sS'purposely'
p937
I948
sS'happy'
p938
I949
sS'questionable'
p939
I950
sS'starve'
p940
I951
sVhead
p941
I952
sS'esteemed'
p942
I2871
sS'gaseous'
p943
I953
sVunfree
p944
I954
sVimmorality
p945
I955
sS'understandably'
p946
I956
sS'differences'
p947
I958
sS'conclusively'
p948
I959
sVunmanly
p949
I960
sVfore
p950
I961
sVback
p951
I2997
sS'disembarked'
p952
I963
sVfailure
p953
I964
sVheat
p954
I965
sVuncle
p955
I966
sS'catalyst'
p956
I967
sVnonaddictive
p957
I1268
sVtriclinic
p958
I969
sVtrue
p959
I970
sS'subtracted'
p960
I3729
sVcontinuance
p961
I972
sS'handily'
p962
I973
sVnoncomprehensively
p963
I974
sS'veiled'
p964
I975
sS'emboldened'
p965
I976
sS'excommunicated'
p966
I977
sS'inside'
p967
I978
sS'myopia'
p968
I979
sS'attached'
p969
I980
sS'maximum'
p970
I981
sS'generosity'
p971
I982
sS'simplifying'
p972
I984
sVcentralise
p973
I985
sS'unusually'
p974
I1325
sS'plaintiffs'
p975
I987
sS'occupiers'
p976
I988
sVaccelerate
p977
I3001
sS'juvenile'
p978
I991
sS'strengthening'
p979
I992
sS'hotter'
p980
I993
sVbelievably
p981
I994
sS'inclusive'
p982
I995
sVcovert
p983
I996
sVwetness
p984
I997
sS'specialities'
p985
I998
sS'decrypt'
p986
I999
sS'textbook'
p987
I1000
sVcultivated_plant
p988
I1001
sVsaltwater
p989
I1002
sS'believable'
p990
I1003
sVhumorlessly
p991
I1005
sVbore
p992
I1006
sS'physical'
p993
I1007
sS'willingly'
p994
I1008
sVfaithful
p995
I1009
sVdying
p996
I1010
sVno
p997
I1011
sS'agreeing'
p998
I1012
sVleafless
p999
I1014
sS'handmade'
p1000
I1015
sS'vanishes'
p1001
I1016
sVtopped
p1002
I1017
sVgrammatical
p1003
I1018
sVinterested
p1004
I1019
sVmatriarchal
p1005
I1020
sS'ambitious'
p1006
I1021
sS'heterozygous'
p1007
I1022
sVupwardly
p1008
I4223
sS'unwilling'
p1009
I1023
sS'emigrating'
p1010
I3005
sS'naive'
p1011
I1025
sS'unbalanced'
p1012
I1026
sS'evergreen'
p1013
I1027
sVungracious
p1014
I1028
sS'permitting'
p1015
I1029
sS'brothers'
p1016
I1030
sS'tasteful'
p1017
I1031
sVunromantically
p1018
I1032
sS'constructs'
p1019
I2281
sS'preceding'
p1020
I1034
sVuninterestingly
p1021
I1035
sVconvincing
p1022
I1036
sS'polite'
p1023
I1037
sVpartiality
p1024
I1038
sVnondriver
p1025
I1039
sVonymous
p1026
I3006
sS'invested'
p1027
I1041
sS'exported'
p1028
I1042
sVfruitlessly
p1029
I1043
sS'honour'
p1030
I1170
sVunmelodious
p1031
I1518
sS'unlocking'
p1032
I1045
sS'died'
p1033
I1046
sS'congested'
p1034
I1047
sS'pros'
p1035
I3009
sS'fastened'
p1036
I1048
sS'faster'
p1037
I1049
sVmale_parent
p1038
I1050
sS'necessitates'
p1039
I1051
sS'cohesion'
p1040
I1052
sVaerobic
p1041
I3007
sS'loyal'
p1042
I1054
sVwarm
p1043
I1055
sVpush
p1044
I1057
sVserious
p1045
I1058
sS'necessitated'
p1046
I1059
sS'backward'
p1047
I1060
sVunprincipled
p1048
I1061
sS'smallest'
p1049
I3842
sVdecelerate
p1050
I1062
sVanglican
p1051
I1063
sS'concept'
p1052
I1064
sS'discreetly'
p1053
I1065
sVchain
p1054
I1066
sVlend_oneself
p1055
I1067
sVindecently
p1056
I1068
sS'rudeness'
p1057
I2290
sS'permeable'
p1058
I1586
sVobviate
p1059
I1071
sVnonviolent
p1060
I2291
sVdisrepute
p1061
I1073
sS'manages'
p1062
I1074
sS'grateful'
p1063
I1075
sS'functioned'
p1064
I1076
sVremarkably
p1065
I1077
sVabundant
p1066
I1078
sS'interlaced'
p1067
I1080
sS'adoptive'
p1068
I3011
sVunlikeness
p1069
I1082
sVunprotective
p1070
I1083
sS'essentials'
p1071
I1084
sS'timbered'
p1072
I1085
sVincognizance
p1073
I186
sVfreelance
p1074
I1087
sS'certification'
p1075
I1588
sS'father'
p1076
I1089
sS'disapproves'
p1077
I1090
sVreparable
p1078
I2292
sVunpleasant
p1079
I1091
sS'dissatisfied'
p1080
I1092
sVglad
p1081
I2293
sVweakening
p1082
I1094
sVdisorient
p1083
I3995
sS'bests'
p1084
I1095
sS'stabilizing'
p1085
I1096
sVanalogous
p1086
I1097
sVnonassociative
p1087
I1098
sVunburden
p1088
I1099
sS'tenacious'
p1089
I1100
sS'downloading'
p1090
I1101
sVupriver
p1091
I1102
sVbroadly
p1092
I1103
sS'permissive'
p1093
I1104
sVincongruousness
p1094
I1418
sS'synchronous'
p1095
I1589
sVunalert
p1096
I1107
sS'ceasing'
p1097
I3435
sS'unfamiliar'
p1098
I1108
sVunfriendliness
p1099
I1109
sVliability
p1100
I1110
sS'embark'
p1101
I1111
sVquadrupedal
p1102
I3375
sVuneventful
p1103
I1112
sS'fullest'
p1104
I1113
sS'pious'
p1105
I1114
sVcool
p1106
I1115
sVstiffen
p1107
I1116
sS'impressive'
p1108
I1119
sVlevel
p1109
I1120
sS'irreducible'
p1110
I1121
sS'anisotropy'
p1111
I1122
sVbrother
p1112
I1124
sVlosings
p1113
I1125
sS'skewed'
p1114
I1126
sVleave
p1115
I1127
sVsolved
p1116
I1128
sVinauspicious
p1117
I1129
sVuntruthfulness
p1118
I1130
sS'disqualify'
p1119
I1132
sS'woven'
p1120
I1133
sVunaware
p1121
I1134
sS'attracting'
p1122
I1135
sVfall_short_of
p1123
I1137
sVbrave
p1124
I1138
sS'legalized'
p1125
I1139
sVinsignificant
p1126
I1140
sVmaximization
p1127
I1141
sS'measurable'
p1128
I1142
sVagitate
p1129
I1143
sS'coalition'
p1130
I2299
sS'lengthened'
p1131
I1145
sS'widened'
p1132
I1146
sS'slowed'
p1133
I1147
sS'dried'
p1134
I1148
sVscarcity
p1135
I1149
sS'unconnected'
p1136
I3759
sS'depressions'
p1137
I3019
sVhyperopia
p1138
I1151
sVdecriminalize
p1139
I1152
sVcurse
p1140
I1153
sVappear
p1141
I1154
sS'psychotropic'
p1142
I1155
sVinfelicity
p1143
I1156
sS'starved'
p1144
I2905
sS'foregoing'
p1145
I1157
sS'agrees'
p1146
I3763
sVtheism
p1147
I1160
sS'unrestricted'
p1148
I1161
sS'commensurate'
p1149
I1162
sS'worked'
p1150
I1163
sS'unintentionally'
p1151
I1164
sVdraftee
p1152
I1165
sVcollateral
p1153
I1166
sVunsure
p1154
I1167
sS'sweeter'
p1155
I198
sS'climbs'
p1156
I1169
sValkaline
p1157
I597
sVinvoluntarily
p1158
I1171
sVdisintegrative
p1159
I1172
sS'whiteness'
p1160
I1174
sVdisclaim
p1161
I1175
sS'downloaded'
p1162
I1176
sS'femininity'
p1163
I1177
sVupgrade
p1164
I1598
sVingenuous
p1165
I1179
sS'decipher'
p1166
I1180
sS'tallying'
p1167
I1181
sS'constructive'
p1168
I1182
sVchange
p1169
I1183
sVunkind
p1170
I1599
sS'boy'
p1171
I1185
sS'noticeable'
p1172
I1187
sVimpatiently
p1173
I1188
sVhealthy
p1174
I1189
sS'spontaneous'
p1175
I2307
sS'guilty'
p1176
I1191
sS'commonly'
p1177
I1192
sS'exiting'
p1178
I1193
sS'sharpening'
p1179
I1194
sS'women'
p1180
I3380
sVineffective
p1181
I1195
sS'descended'
p1182
I1196
sVboo
p1183
I1197
sS'usually'
p1184
I1198
sS'hospitality'
p1185
I1199
sS'noticeably'
p1186
I1200
sS'influx'
p1187
I1201
sS'concealed'
p1188
I2324
sVuseful
p1189
I1204
sS'melodious'
p1190
I1206
sVunargumentative
p1191
I1207
sVmarked
p1192
I1208
sS'sincerely'
p1193
I1209
sS'flexibility'
p1194
I1210
sS'licensing'
p1195
I1211
sS'translational'
p1196
I1212
sVrarely
p1197
I1213
sVstingy
p1198
I1214
sS'unilateral'
p1199
I205
sVpositiveness
p1200
I1216
sVwealth
p1201
I1217
sS'driest'
p1202
I1218
sS'perished'
p1203
I1219
sS'angry'
p1204
I1220
sS'uncritical'
p1205
I1221
sS'coldest'
p1206
I3097
sS'centrality'
p1207
I1222
sS'insides'
p1208
I1223
sVsisterly
p1209
I1224
sVsmoothness
p1210
I4096
sS'upheld'
p1211
I1225
sVopposed
p1212
I1226
sVencode
p1213
I1227
sS'black'
p1214
I1607
sVsharpen
p1215
I1229
sVtheoretical
p1216
I1230
sS'wicked'
p1217
I1231
sVnonconductive
p1218
I1232
sVstinginess
p1219
I208
sS'diurnal'
p1220
I1234
sS'acceptable'
p1221
I1235
sVmaximise
p1222
I1236
sVrefrain
p1223
I1237
sS'approving'
p1224
I1238
sS'dystopia'
p1225
I3037
sS'withdrawn'
p1226
I3901
sS'degrade'
p1227
I1240
sVacceptably
p1228
I1241
sVimpassable
p1229
I4064
sVmisconception
p1230
I1243
sVintemperance
p1231
I1244
sS'easiest'
p1232
I1245
sVedible
p1233
I1247
sVtrapezium
p1234
I1248
sS'defeats'
p1235
I1249
sS'fortified'
p1236
I1250
sVmodified
p1237
I1251
sS'believes'
p1238
I1252
sS'hardest'
p1239
I1253
sS'harmonious'
p1240
I1254
sVmortality
p1241
I3780
sS'believed'
p1242
I1256
sVnonfictional
p1243
I213
sS'fauna'
p1244
I1258
sVarrive
p1245
I1259
sS'thicknesses'
p1246
I1260
sS'unconditional'
p1247
I1261
sVimpracticality
p1248
I1262
sS'admired'
p1249
I1263
sS'monoclinic'
p1250
I3040
sVtrade_edition
p1251
I1265
sS'grassy'
p1252
I1266
sS'expanding'
p1253
I1267
sS'licensed'
p1254
I3264
sVromanticism
p1255
I1269
sVinexperience
p1256
I1270
sVdisbelieve
p1257
I1271
sS'slows'
p1258
I3784
sVromanticist
p1259
I1273
sVimpermeable
p1260
I3042
sS'admires'
p1261
I1275
sVnonintervention
p1262
I2322
sVinvariability
p1263
I3785
sS'distinguishable'
p1264
I1278
sS'productive'
p1265
I1279
sS'septic'
p1266
I1280
sVfortunately
p1267
I1281
sS'centrally'
p1268
I1611
sVdecolonize
p1269
I1282
sS'unwritten'
p1270
I2301
sVmeager
p1271
I1283
sS'grosser'
p1272
I1284
sVunrealistically
p1273
I1285
sS'advancing'
p1274
I1286
sVpure
p1275
I1287
sS'irreverent'
p1276
I1288
sS'persuasion'
p1277
I1289
sS'divider'
p1278
I1290
sVeffortful
p1279
I1291
sS'impartial'
p1280
I110
sVstarless
p1281
I1293
sS'southern'
p1282
I1294
sS'unobtrusive'
p1283
I1295
sS'convincingly'
p1284
I1296
sVrehabilitate
p1285
I1297
sVnonalignment
p1286
I1298
sVdestructive
p1287
I1299
sS'disqualified'
p1288
I912
sS'unbelievably'
p1289
I1301
sVman
p1290
I1302
sS'temperate'
p1291
I1303
sS'supersonic'
p1292
I1304
sVnatural
p1293
I1305
sS'dynamical'
p1294
I1306
sVliquid
p1295
I1307
sS'futures'
p1296
I1309
sS'explicit'
p1297
I1310
sS'ordinarily'
p1298
I1311
sS'compressing'
p1299
I1312
sS'complaining'
p1300
I1313
sS'accelerated'
p1301
I1314
sVpatronise
p1302
I1316
sS'invests'
p1303
I1317
sS'pulled'
p1304
I1319
sS'worsens'
p1305
I1320
sVsuperscript
p1306
I1321
sVexclusive
p1307
I1322
sS'innocuous'
p1308
I1323
sVunfavorably
p1309
I1324
sVnonpayment
p1310
I1326
sVgradual
p1311
I1327
sVpointed
p1312
I1328
sVunacceptable
p1313
I1329
sVstability
p1314
I1330
sS'hiring'
p1315
I319
sVnon-involvement
p1316
I1332
sVincapacity
p1317
I3812
sVcounterclockwise
p1318
I1334
sS'affirms'
p1319
I1335
sS'differs'
p1320
I1336
sVcold
p1321
I1337
sS'equalling'
p1322
I1338
sVirresolute
p1323
I1339
sVunconnectedness
p1324
I1340
sVimpurity
p1325
I4286
sVconjunct
p1326
I1341
sVdisconnect
p1327
I1342
sS'unnoticed'
p1328
I3053
sS'curly'
p1329
I1344
sS'acknowledge'
p1330
I1345
sS'interesting'
p1331
I1346
sS'sexiest'
p1332
I1348
sVhot
p1333
I1349
sS'decreases'
p1334
I1350
sS'attraction'
p1335
I1351
sS'immortality'
p1336
I1352
sS'entered'
p1337
I4220
sVgeneralist
p1338
I1576
sS'decreased'
p1339
I1355
sS'aliens'
p1340
I3055
sS'inefficiency'
p1341
I1357
sS'modestly'
p1342
I1358
sVfemaleness
p1343
I453
sS'sacred'
p1344
I2334
sS'civilian'
p1345
I1361
sVunhurriedly
p1346
I1362
sS'smarter'
p1347
I1363
sS'sweetened'
p1348
I1364
sS'insomnia'
p1349
I1365
sS'joys'
p1350
I3838
sS'sarcastic'
p1351
I1366
sVchromatic
p1352
I1367
sS'toxic'
p1353
I1368
sVqualified
p1354
I1369
sVunimpressive
p1355
I1370
sVmutable
p1356
I2337
sS'arriving'
p1357
I1372
sVunsusceptible
p1358
I1373
sS'balances'
p1359
I1374
sVunpredictability
p1360
I1375
sS'matched'
p1361
I1376
sVunfruitful
p1362
I1377
sVsusceptibility
p1363
I1378
sS'shouted'
p1364
I1379
sS'equality'
p1365
I1380
sVfewest
p1366
I3163
sS'stabilize'
p1367
I1382
sS'respectable'
p1368
I1383
sS'suffixed'
p1369
I1384
sS'materialized'
p1370
I1385
sS'sensibilities'
p1371
I1386
sS'requires'
p1372
I3190
sS'ceremonially'
p1373
I1387
sS'establishing'
p1374
I1388
sVdysphoria
p1375
I1389
sS'synchronize'
p1376
I1390
sS'finely'
p1377
I1391
sS'careless'
p1378
I1392
sVoffshore
p1379
I1393
sS'heresies'
p1380
I1394
sS'instability'
p1381
I1396
sS'entirely'
p1382
I1397
sS'repaired'
p1383
I1398
sS'busiest'
p1384
I1635
sS'weighted'
p1385
I1400
sVunproductive
p1386
I1401
sVsimplicity
p1387
I2340
sS'growths'
p1388
I1403
sS'abnormal'
p1389
I1404
sVborrow
p1390
I1636
sVnonfissionable
p1391
I1406
sS'balanced'
p1392
I1407
sVunlock
p1393
I1408
sVunlikelihood
p1394
I1409
sS'exempted'
p1395
I2604
sS'begun'
p1396
I1410
sVgirl
p1397
I1411
sS'avoided'
p1398
I1412
sS'adequately'
p1399
I1413
sVsunrise
p1400
I1414
sVliving
p1401
I1416
sS'concur'
p1402
I1417
sS'opened'
p1403
I607
sVamateurishly
p1404
I1419
sS'emigrate'
p1405
I1420
sVfemale_child
p1406
I1421
sS'interference'
p1407
I4
sS'activities'
p1408
I2149
sVunworldly
p1409
I1423
sVincrease
p1410
I1424
sVeasy
p1411
I926
sVinconspicuously
p1412
I1428
sVplug_in
p1413
I1429
sS'correct'
p1414
I60
sS'unifying'
p1415
I1433
sS'superiors'
p1416
I1434
sS'attended'
p1417
I1435
sS'disintegrated'
p1418
I1437
sS'incentives'
p1419
I1439
sVrecede
p1420
I4229
sVpossibility
p1421
I1440
sS'minimized'
p1422
I1441
sVdisrespect
p1423
I1442
sS'unfriendly'
p1424
I1443
sS'complicated'
p1425
I1444
sVunrespectable
p1426
I1447
sS'quits'
p1427
I1448
sS'prenatal'
p1428
I2403
sVinevitable
p1429
I1449
sS'forbids'
p1430
I1450
sVadvance
p1431
I1451
sS'backside'
p1432
I1453
sS'wrong'
p1433
I1454
sVhonest
p1434
I1455
sS'unpaid'
p1435
I1456
sS'impure'
p1436
I1457
sVdisincarnate
p1437
I1458
sVundesirable
p1438
I235
sVunholiness
p1439
I1460
sS'accelerating'
p1440
I4089
sS'unborn'
p1441
I1461
sS'discontinued'
p1442
I1462
sVfrequent
p1443
I1463
sS'unnecessary'
p1444
I862
sS'simplifies'
p1445
I1464
sS'fetched'
p1446
I1465
sS'impossibly'
p1447
I1466
sS'symmetry'
p1448
I1467
sS'conform'
p1449
I3822
sS'omitted'
p1450
I305
sVuntwine
p1451
I311
sS'catalysts'
p1452
I1472
sS'nativity'
p1453
I1473
sVdesynchronization
p1454
I1474
sS'temporarily'
p1455
I3823
sS'simplified'
p1456
I1476
sS'intrastate'
p1457
I1477
sVdirectly
p1458
I1478
sS'generative'
p1459
I1479
sS'sounds'
p1460
I1480
sVopen
p1461
I1481
sVincompetently
p1462
I1482
sS'cheerfully'
p1463
I1483
sVlittle
p1464
I1484
sS'truthfully'
p1465
I378
sS'chronic'
p1466
I4174
sS'meaningful'
p1467
I1486
sS'lightened'
p1468
I1354
sVinsentient
p1469
I1488
sVnon-engagement
p1470
I1489
sS'legally'
p1471
I1491
sVwhite
p1472
I1492
sS'violated'
p1473
I1649
sVunprofitability
p1474
I1494
sS'elasticity'
p1475
I3057
sS'inefficient'
p1476
I1495
sS'uninformed'
p1477
I1496
sS'asymmetric'
p1478
I1497
sS'continuous'
p1479
I1498
sVaccurately
p1480
I500
sS'released'
p1481
I1500
sVcriticize
p1482
I2356
sVdeceleration
p1483
I1502
sVheterologous
p1484
I1503
sS'specialists'
p1485
I1504
sVdisequilibrium
p1486
I1118
sVwide
p1487
I1506
sVrightfulness
p1488
I1507
sS'bored'
p1489
I3080
sS'illegality'
p1490
I566
sVunfortunately
p1491
I1510
sS'depressed'
p1492
I1512
sVstructured
p1493
I1513
sS'require'
p1494
I1514
sS'folly'
p1495
I1515
sS'optimism'
p1496
I1516
sVsquare_shooter
p1497
I1517
sVprotected
p1498
I1430
sS'hydrostatic'
p1499
I2854
sS'optimist'
p1500
I1519
sS'merits'
p1501
I3829
sVextinguish
p1502
I1521
sS'reassuring'
p1503
I3684
sS'respectability'
p1504
I1522
sS'illness'
p1505
I658
sS'legalizing'
p1506
I1524
sS'nicer'
p1507
I1525
sS'remained'
p1508
I672
sVpro
p1509
I1527
sS'underestimated'
p1510
I1528
sS'invalidated'
p1511
I695
sS'sad'
p1512
I1530
sVconsciously
p1513
I2693
sVnonphotosynthetic
p1514
I1531
sS'unaltered'
p1515
I1656
sVvoiced
p1516
I1533
sS'abnormalities'
p1517
I1534
sS'insatiable'
p1518
I1535
sVoccupied
p1519
I1536
sS'dryness'
p1520
I1537
sS'exploratory'
p1521
I1538
sS'fashionable'
p1522
I1539
sVefficient
p1523
I1540
sS'foreigner'
p1524
I78
sVunsatisfactorily
p1525
I1543
sS'converges'
p1526
I801
sS'unlawfully'
p1527
I1545
sVunsuitably
p1528
I1546
sS'online'
p1529
I1547
sVobjective
p1530
I1548
sS'personalized'
p1531
I1549
sS'strengths'
p1532
I1550
sS'relaxed'
p1533
I3087
sS'flattered'
p1534
I1552
sVbegin
p1535
I1553
sS'sure'
p1536
I1554
sValtered
p1537
I867
sS'opposite'
p1538
I876
sS'printable'
p1539
I1557
sVenter
p1540
I272
sVcompress
p1541
I1559
sS'clearer'
p1542
I1560
sVpaid
p1543
I1561
sVinsanity
p1544
I1562
sVunkindness
p1545
I1563
sVunattractively
p1546
I1564
sS'staccato'
p1547
I4127
sS'expertly'
p1548
I913
sVmultiply
p1549
I365
sS'upland'
p1550
I1567
sVknowingly
p1551
I932
sS'conspicuous'
p1552
I1569
sS'inequalities'
p1553
I1661
sS'acknowledges'
p1554
I1571
sVsynonym
p1555
I968
sVsurprising
p1556
I1573
sVnonworker
p1557
I1574
sS'proud'
p1558
I1575
sS'hungry'
p1559
I1577
sS'gracefully'
p1560
I1578
sVproperly
p1561
I3092
sVsunset
p1562
I1580
sVuncertain
p1563
I4170
sS'cluttering'
p1564
I1581
sVprofessional
p1565
I1582
sS'typically'
p1566
I1583
sS'satisfactorily'
p1567
I1584
sS'uninterested'
p1568
I1004
sVinvariableness
p1569
I1070
sVinequity
p1570
I1587
sVshow
p1571
I1088
sVcheap
p1572
I1106
sS'merit'
p1573
I1590
sS'elevate'
p1574
I1591
sS'bright'
p1575
I1592
sS'inconsistent'
p1576
I1593
sS'encoded'
p1577
I1594
sS'scarce'
p1578
I1595
sS'aggressive'
p1579
I1596
sS'inshore'
p1580
I1597
sVslow
p1581
I1178
sVmental_health
p1582
I1184
sS'stormy'
p1583
I1600
sVunprofitableness
p1584
I1601
sS'disables'
p1585
I2371
sS'considerable'
p1586
I3100
sVnonbeing
p1587
I1605
sS'explicitly'
p1588
I1606
sS'enriched'
p1589
I1228
sS'extracellular'
p1590
I1609
sS'awareness'
p1591
I1610
sVinterstate
p1592
I111
sVdissimilar
p1593
I1613
sS'uncles'
p1594
I1614
sVnonpregnant
p1595
I3103
sS'incivility'
p1596
I1616
sVlighten
p1597
I1617
sS'geocentric'
p1598
I1618
sS'broadest'
p1599
I1619
sS'uninvolved'
p1600
I1620
sS'employers'
p1601
I1541
sS'unimportant'
p1602
I1622
sS'infallible'
p1603
I1623
sS'unconsciously'
p1604
I1624
sVnonhierarchical
p1605
I1674
sS'symmetrically'
p1606
I1626
sS'heritable'
p1607
I1627
sS'unethical'
p1608
I1628
sS'clearest'
p1609
I1629
sVimmodesty
p1610
I1630
sVdisinherit
p1611
I1631
sS'inpatient'
p1612
I1632
sVplay_down
p1613
I2862
sVde-energise
p1614
I1633
sVstoppable
p1615
I1634
sS'seldom'
p1616
I1399
sVdisagree
p1617
I4003
sVimpolite
p1618
I1405
sS'wettest'
p1619
I1659
sVstupid
p1620
I1637
sS'losers'
p1621
I1638
sS'undefeated'
p1622
I678
sVuncover
p1623
I1640
sVdisparage
p1624
I1641
sS'prosecutions'
p1625
I1642
sVhusband
p1626
I1643
sS'psychopathy'
p1627
I1644
sVdeclared
p1628
I1645
sS'temperance'
p1629
I1647
sS'honesty'
p1630
I1648
sS'unmarried'
p1631
I1493
sVmediacy
p1632
I1650
sS'dismantling'
p1633
I2726
sS'connections'
p1634
I1652
sVnoncausative
p1635
I1653
sVunfit
p1636
I1654
sS'asleep'
p1637
I1655
sVunwooded
p1638
I1532
sS'insoluble'
p1639
I1657
sS'purest'
p1640
I1544
sS'intoxicating'
p1641
I1471
sS'conscript'
p1642
I2960
sS'satisfying'
p1643
I1660
sVvoluntary
p1644
I1570
sS'politic'
p1645
I3111
sS'managing'
p1646
I1663
sS'subsequent'
p1647
I1664
sS'definite'
p1648
I1666
sS'inhibitors'
p1649
I1667
sVatomistic
p1650
I1668
sS'legitimacy'
p1651
I1683
sVoutside
p1652
I1670
sS'downriver'
p1653
I1671
sS'fearless'
p1654
I1684
sS'reproducible'
p1655
I1673
sS'import'
p1656
I1625
sVineloquently
p1657
I1675
sVimpoliteness
p1658
I1676
sS'untrustworthy'
p1659
I1677
sS'gathered'
p1660
I3291
sVsatiate
p1661
I1678
sS'multiplied'
p1662
I1679
sS'congruent'
p1663
I3458
sVmature
p1664
I3114
sS'parent'
p1665
I1681
sVparental
p1666
I1682
sS'unlocks'
p1667
I1669
sS'approvals'
p1668
I1672
sS'pluck'
p1669
I1685
sVdisrespectfully
p1670
I1686
sVconcentrate
p1671
I1687
sVemotional
p1672
I986
sVcome
p1673
I1689
sS'receded'
p1674
I1690
sS'immature'
p1675
I4142
sS'busting'
p1676
I1691
sS'discernible'
p1677
I1692
sS'talented'
p1678
I1694
sS'gratefully'
p1679
I1695
sS'embarkation'
p1680
I1696
sS'many'
p1681
I1697
sVquiet
p1682
I1699
sVcontract
p1683
I1700
sS'enabling'
p1684
I1701
sS'loudly'
p1685
I1703
sS'unflattering'
p1686
I1704
sVnoncollapsible
p1687
I1705
sS'minima'
p1688
I1707
sVcontinuation
p1689
I1708
sVunsarcastic
p1690
I1688
sVunquiet
p1691
I1709
sS'individuality'
p1692
I3119
sS'inexplicable'
p1693
I1710
sS'satisfaction'
p1694
I1711
sVinconspicuous
p1695
I3936
sVapproval
p1696
I3864
sVliberal
p1697
I1713
sVextinct
p1698
I1714
sS'centralised'
p1699
I1715
sVpostnatal
p1700
I1716
sS'noisy'
p1701
I3358
sVimpropriety
p1702
I120
sS'specializing'
p1703
I1718
sS'sensible'
p1704
I1719
sS'euphemisms'
p1705
I1720
sVconsumptive
p1706
I1721
sVunrenewable
p1707
I1722
sVuncharacteristically
p1708
I1723
sS'skew'
p1709
I1724
sVinformed
p1710
I1725
sS'escalated'
p1711
I1726
sS'immunodeficiency'
p1712
I1727
sS'relatedness'
p1713
I1728
sS'attaching'
p1714
I1729
sS'bequeathed'
p1715
I1730
sS'deposited'
p1716
I1731
sS'dangers'
p1717
I1732
sS'partisanship'
p1718
I1733
sS'linguistic'
p1719
I1734
sS'escalates'
p1720
I1735
sS'unrecorded'
p1721
I697
sS'sensibly'
p1722
I1737
sS'patriarchal'
p1723
I1738
sVeducated
p1724
I1739
sS'colonised'
p1725
I2481
sVtasteless
p1726
I1740
sVethical
p1727
I3617
sVnoncrucial
p1728
I1741
sS'blessing'
p1729
I1742
sS'layperson'
p1730
I1743
sVdisesteem
p1731
I1744
sVpolytheism
p1732
I1746
sS'dramatic'
p1733
I1747
sVwake
p1734
I1748
sVexternal
p1735
I1749
sS'extant'
p1736
I1750
sS'attentive'
p1737
I15
sVirrelevant
p1738
I1752
sS'former'
p1739
I1753
sS'sound'
p1740
I1754
sS'juveniles'
p1741
I1755
sS'diatonic'
p1742
I1756
sVprofane
p1743
I1757
sVinelegantly
p1744
I1758
sVtractable
p1745
I1760
sS'prominence'
p1746
I1761
sS'straighten'
p1747
I1762
sS'premature'
p1748
I1763
sVapogee
p1749
I1764
sVhereditarianism
p1750
I1765
sS'successes'
p1751
I1766
sS'slippery'
p1752
I1767
sS'unreported'
p1753
I1768
sVphilogyny
p1754
I3181
sS'prescriptive'
p1755
I1769
sS'awakened'
p1756
I1770
sS'coolest'
p1757
I1771
sVunsatisfactory
p1758
I1772
sVplanar
p1759
I1773
sVnonlinguistic
p1760
I1774
sS'zenith'
p1761
I1775
sVnonresidential
p1762
I1776
sS'sincere'
p1763
I1778
sVdepersonalize
p1764
I1779
sVnonslippery
p1765
I4111
sS'sleeping'
p1766
I1780
sVmiddle
p1767
I1781
sS'sudden'
p1768
I1783
sVclutter
p1769
I1784
sVdiabatic
p1770
I1785
sS'unreserved'
p1771
I1786
sS'decisively'
p1772
I1787
sVworry
p1773
I1788
sS'different'
p1774
I1789
sS'resentful'
p1775
I1790
sS'shuts'
p1776
I1791
sVunhelpfully
p1777
I1792
sS'granted'
p1778
I1793
sS'bumpy'
p1779
I1794
sVcoarsely
p1780
I249
sS'unholy'
p1781
I1797
sVunconvincingly
p1782
I2828
sS'enquiries'
p1783
I1798
sVhipless
p1784
I1799
sVweakness
p1785
I1800
sS'frequented'
p1786
I1801
sVunplayful
p1787
I1802
sVlicit
p1788
I1803
sVunidimensional
p1789
I1804
sVdishonorable
p1790
I1805
sS'noble'
p1791
I1806
sVinsensibility
p1792
I2402
sS'closest'
p1793
I1808
sS'sickness'
p1794
I1809
sVapplaud
p1795
I1810
sS'downloads'
p1796
I1811
sS'births'
p1797
I1812
sVdecompress
p1798
I1813
sS'disadvantaged'
p1799
I1814
sS'annulled'
p1800
I1815
sS'decently'
p1801
I1816
sS'delicate'
p1802
I1818
sS'unqualified'
p1803
I1819
sS'unmanageable'
p1804
I1820
sVvalidate
p1805
I1203
sS'weep'
p1806
I1822
sS'totally'
p1807
I1823
sS'clogged'
p1808
I3881
sS'renewable'
p1809
I1825
sS'enchanting'
p1810
I1826
sS'relies'
p1811
I1827
sVundependability
p1812
I1830
sS'weakened'
p1813
I1427
sVminimize
p1814
I1832
sS'purposeful'
p1815
I1833
sVconstitutional
p1816
I1835
sS'belatedly'
p1817
I3972
sS'aphelion'
p1818
I1836
sVimmeasurable
p1819
I1837
sS'relied'
p1820
I1838
sS'inability'
p1821
I1839
sS'uninjured'
p1822
I1840
sS'synthesised'
p1823
I1841
sS'offensively'
p1824
I1842
sS'sessile'
p1825
I2407
sVdisloyal
p1826
I1844
sVdiffident
p1827
I1845
sVmasochistic
p1828
I3855
sVcriminalise
p1829
I1846
sS'being'
p1830
I1847
sVgenerally
p1831
I1848
sS'unconstitutional'
p1832
I1849
sS'exaggerating'
p1833
I1850
sVvaluable
p1834
I1851
sVloosening
p1835
I1852
sS'unofficial'
p1836
I1853
sS'violent'
p1837
I1854
sS'relevant'
p1838
I2279
sVinvalid
p1839
I3145
sVproximal
p1840
I1857
sVunalike
p1841
I1859
sVunenlightenment
p1842
I1860
sS'slims'
p1843
I1861
sVdisreputable
p1844
I1862
sVlongness
p1845
I1863
sVheuristic
p1846
I1864
sS'alphabetical'
p1847
I1865
sS'death'
p1848
I1866
sS'legitimately'
p1849
I1867
sVmonolingual
p1850
I1868
sVremember
p1851
I3660
sS'futurity'
p1852
I1869
sS'complain'
p1853
I2308
sS'lender'
p1854
I1871
sS'porosity'
p1855
I1872
sVdecompression
p1856
I1873
sVinner
p1857
I4199
sS'invasive'
p1858
I3891
sVverso
p1859
I1874
sS'heavier'
p1860
I1875
sS'joyful'
p1861
I1876
sS'disproportionate'
p1862
I1877
sVuntruthfully
p1863
I1878
sS'narrower'
p1864
I3893
sVdiscontinue
p1865
I1882
sVnatural_object
p1866
I1883
sS'admitting'
p1867
I1884
sS'unveil'
p1868
I1885
sS'early'
p1869
I1886
sS'inflation'
p1870
I1887
sS'politely'
p1871
I1888
sVdisadvantageous
p1872
I1889
sS'boycotted'
p1873
I1890
sS'accepted'
p1874
I1891
sVlady
p1875
I1892
sS'vanished'
p1876
I1893
sS'rear'
p1877
I1894
sS'sensational'
p1878
I1895
sVacute
p1879
I1896
sVnay
p1880
I2865
sVmilitarize
p1881
I1898
sS'stranger'
p1882
I1899
sS'unrepentant'
p1883
I1900
sS'clad'
p1884
I1901
sVdiscomposure
p1885
I1902
sVactive_voice
p1886
I1903
sS'sanity'
p1887
I1904
sS'caudal'
p1888
I1905
sS'superiority'
p1889
I1906
sS'laughing'
p1890
I1907
sS'nephews'
p1891
I2418
sVunassertive
p1892
I1909
sS'voluntarily'
p1893
I1910
sS'passionate'
p1894
I1911
sS'ascends'
p1895
I1912
sVdeconcentrate
p1896
I1913
sS'undifferentiated'
p1897
I1915
sS'satisfactory'
p1898
I1916
sS'collapsible'
p1899
I1917
sS'climactic'
p1900
I1918
sVlaugh
p1901
I2050
sVuppercase
p1902
I1920
sVconditional
p1903
I1921
sVascend
p1904
I1922
sVcathode
p1905
I1923
sVcompetition
p1906
I1924
sVmistrust
p1907
I1925
sVunrestrictive
p1908
I1926
sS'privatization'
p1909
I1927
sVspecified
p1910
I1929
sS'ascent'
p1911
I1930
sS'matching'
p1912
I1777
sS'civilly'
p1913
I1932
sS'capability'
p1914
I2422
sS'watchful'
p1915
I3974
sS'insolvency'
p1916
I1934
sS'unlocked'
p1917
I1935
sS'freer'
p1918
I1936
sVunbelief
p1919
I1937
sVrecorded
p1920
I1938
sS'legal'
p1921
I1939
sVconservative
p1922
I1940
sVcritical
p1923
I1941
sVexit
p1924
I733
sVgladden
p1925
I1944
sVdecentralise
p1926
I1945
sVinhabited
p1927
I1946
sVunluckily
p1928
I1947
sS'quitting'
p1929
I1948
sS'freed'
p1930
I1950
sVunsuccessfully
p1931
I1951
sVunethically
p1932
I1952
sVassembly
p1933
I1953
sS'buckling'
p1934
I1954
sS'power'
p1935
I1955
sS'relented'
p1936
I1956
sS'malfunctioning'
p1937
I1957
sS'indestructible'
p1938
I1958
sVsaturated
p1939
I3469
sVcommunicate
p1940
I1959
sVunusual
p1941
I1960
sVcarefulness
p1942
I1961
sS'loudest'
p1943
I1962
sS'disparaging'
p1944
I1963
sVbroken
p1945
I1964
sVinnocence
p1946
I1966
sVimmigrate
p1947
I1967
sS'patronising'
p1948
I1968
sS'on'
p1949
I1970
sS'simplest'
p1950
I3790
sS'unopposed'
p1951
I1971
sS'piety'
p1952
I1972
sS'capable'
p1953
I1973
sVgreater
p1954
I3675
sVpractical
p1955
I1975
sS'escalating'
p1956
I1976
sVsupervised
p1957
I1977
sVstand
p1958
I1978
sS'conceals'
p1959
I1979
sVact
p1960
I1980
sS'sadistic'
p1961
I1981
sS'tributary'
p1962
I1983
sVunconsciousness
p1963
I1986
sS'quietly'
p1964
I1987
sS'meagre'
p1965
I1751
sS'hypothermia'
p1966
I1989
sVweigh_down
p1967
I2433
sS'whiter'
p1968
I1991
sS'skilled'
p1969
I1992
sS'lifted'
p1970
I1994
sS'legged'
p1971
I1995
sVinattentiveness
p1972
I1997
sS'involvement'
p1973
I1998
sS'lively'
p1974
I1999
sS'heated'
p1975
I2000
sVconfront
p1976
I4065
sVattachable
p1977
I2001
sVtheoretically
p1978
I2002
sVnonsmoker
p1979
I2003
sVfast
p1980
I3072
sS'unmodified'
p1981
I2005
sS'there'
p1982
I2006
sVliteral
p1983
I3912
sS'polyphony'
p1984
I2008
sVdecode
p1985
I2009
sVstart
p1986
I2010
sVcompliant
p1987
I2011
sVoutflow
p1988
I3913
sVlow
p1989
I2012
sS'colder'
p1990
I2435
sS'politeness'
p1991
I2014
sS'dependable'
p1992
I2015
sVdecisive
p1993
I2016
sS'undamaged'
p1994
I2017
sS'forbade'
p1995
I2018
sVdisreputability
p1996
I2019
sVunreliably
p1997
I2020
sVantecedent
p1998
I3171
sVproportionately
p1999
I2022
sS'peaceful'
p2000
I2023
sS'delayed'
p2001
I2024
sVsophisticated
p2002
I2025
sVunhappiness
p2003
I3902
sS'suffers'
p2004
I3172
sS'substantiated'
p2005
I2785
sS'upbeat'
p2006
I3916
sVunreliable
p2007
I2028
sVpromote
p2008
I2029
sS'irreversible'
p2009
I2030
sS'featuring'
p2010
I2031
sVpull
p2011
I2032
sVrush
p2012
I2033
sS'capably'
p2013
I1736
sS'arranged'
p2014
I2035
sS'hallows'
p2015
I2036
sS'wholesale'
p2016
I2037
sS'interiors'
p2017
I2038
sVlawfully
p2018
I2039
sVunwellness
p2019
I2040
sS'unveils'
p2020
I2041
sS'nearest'
p2021
I3327
sS'sadness'
p2022
I2042
sS'arranges'
p2023
I2043
sS'dirty'
p2024
I2044
sS'likeable'
p2025
I2937
sS'irreconcilable'
p2026
I2439
sS'uplifted'
p2027
I3919
sVpowerless
p2028
I1446
sS'darker'
p2029
I2047
sS'strongly'
p2030
I2048
sS'illnesses'
p2031
I1415
sS'diverges'
p2032
I2051
sS'fright'
p2033
I2053
sVmultilaterally
p2034
I2054
sVcertain
p2035
I2055
sS'downplayed'
p2036
I2056
sS'moved'
p2037
I2057
sVdeep
p2038
I2058
sVgeneral
p2039
I2059
sVimpalpable
p2040
I2060
sVenable
p2041
I2061
sS'hypertension'
p2042
I505
sVcause_to_sleep
p2043
I2063
sVdenationalize
p2044
I2064
sVcontrolled
p2045
I3922
sS'upmarket'
p2046
I2066
sS'principled'
p2047
I2067
sVfill
p2048
I2068
sS'incorrect'
p2049
I2069
sS'selfish'
p2050
I2070
sS'unwelcome'
p2051
I4004
sS'completeness'
p2052
I2072
sVgutlessness
p2053
I3283
sS'inactivation'
p2054
I2074
sS'drivers'
p2055
I2075
sS'discontinuing'
p2056
I2076
sVwaxing
p2057
I2927
sVabolish
p2058
I2078
sS'productively'
p2059
I2079
sS'tight'
p2060
I2080
sVnarrowing
p2061
I2081
sS'terminating'
p2062
I2082
sS'noblemen'
p2063
I2083
sS'aunts'
p2064
I1831
sS'unneeded'
p2065
I2086
sVincomprehensible
p2066
I2087
sS'dismayed'
p2067
I2088
sS'immunity'
p2068
I2089
sVpoor
p2069
I2090
sS'attendances'
p2070
I2091
sS'ineligible'
p2071
I2092
sVdemobilize
p2072
I2093
sVforgettable
p2073
I2094
sS'includes'
p2074
I2095
sS'inaccuracy'
p2075
I3187
sVimportant
p2076
I2097
sVunattractive
p2077
I2098
sS'included'
p2078
I2099
sVdisloyalty
p2079
I1308
sS'prophetic'
p2080
I4207
sS'prudent'
p2081
I2101
sVunconstitutionally
p2082
I2102
sS'legitimate'
p2083
I3795
sVconclusive
p2084
I2103
sS'unpopularity'
p2085
I2104
sS'recapitulation'
p2086
I2105
sS'wife'
p2087
I2106
sS'invest'
p2088
I2107
sS'curve'
p2089
I2108
sVefflux
p2090
I3929
sS'disagreeing'
p2091
I2110
sS'impossibility'
p2092
I2111
sS'weighty'
p2093
I3191
sS'commencement'
p2094
I4297
sS'haired'
p2095
I2113
sS'expenditure'
p2096
I3930
sS'sensibility'
p2097
I2115
sS'externally'
p2098
I8
sS'liar'
p2099
I2117
sVforget
p2100
I2118
sVinexpedience
p2101
I2119
sS'crucial'
p2102
I2120
sS'forbidden'
p2103
I2121
sVlack
p2104
I2122
sS'disassembled'
p2105
I2123
sS'splitting'
p2106
I2124
sS'founded'
p2107
I53
sS'ceased'
p2108
I2127
sS'surgical'
p2109
I2128
sVwinnings
p2110
I2129
sS'upholds'
p2111
I2130
sVcooperative
p2112
I2131
sS'fairness'
p2113
I2132
sS'managed'
p2114
I1432
sVinexpediency
p2115
I2134
sS'improperly'
p2116
I2135
sVunmalleability
p2117
I2136
sVsnail_mail
p2118
I2137
sVoff-line
p2119
I3517
sVcareful
p2120
I2138
sS'prefixed'
p2121
I2139
sS'blackest'
p2122
I2141
sVhyperthermia
p2123
I2142
sS'causative'
p2124
I4011
sS'preserved'
p2125
I2143
sS'health'
p2126
I2455
sVheterogeneity
p2127
I2145
sS'defuse'
p2128
I2146
sVendogenous
p2129
I195
sS'degeneration'
p2130
I2148
sVweak_point
p2131
I934
sS'woman'
p2132
I2150
sVequivocal
p2133
I2152
sVfar
p2134
I2153
sVdisjoin
p2135
I2154
sS'plausibility'
p2136
I2155
sS'unregulated'
p2137
I2156
sVperihelion
p2138
I2158
sVworst
p2139
I2159
sVnoncyclic
p2140
I2160
sVfall
p2141
I2161
sS'manageable'
p2142
I293
sVclement
p2143
I3423
sS'concurring'
p2144
I2164
sS'disconnected'
p2145
I2165
sS'generalised'
p2146
I2166
sS'cheerful'
p2147
I3202
sVinduced
p2148
I2460
sS'mothers'
p2149
I2169
sVingratitude
p2150
I2170
sS'aunty'
p2151
I2171
sS'mild'
p2152
I2172
sS'insufficiently'
p2153
I2173
sS'rationally'
p2154
I2174
sVlarge
p2155
I2175
sS'ungrammatical'
p2156
I3943
sS'sane'
p2157
I2177
sS'cluttered'
p2158
I3225
sS'liars'
p2159
I2178
sVsmall
p2160
I2179
sVbiological
p2161
I2180
sS'abbreviated'
p2162
I2181
sVunreliableness
p2163
I2182
sS'intelligibility'
p2164
I406
sS'harder'
p2165
I3946
sS'sync'
p2166
I433
sS'beliefs'
p2167
I3876
sS'past'
p2168
I2186
sS'honourable'
p2169
I2187
sS'query'
p2170
I3208
sS'boldness'
p2171
I2466
sS'attributable'
p2172
I2191
sS'aptly'
p2173
I2192
sS'quicken'
p2174
I2193
sVunorthodoxy
p2175
I2194
sVnonlinear
p2176
I2195
sS'stood'
p2177
I504
sS'darkness'
p2178
I2197
sS'advantageous'
p2179
I2198
sVimperceptible
p2180
I2199
sS'thickness'
p2181
I2200
sS'ovulation'
p2182
I3274
sVdesegregate
p2183
I2201
sVimperceptibly
p2184
I2202
sS'fractional'
p2185
I2203
sVfalsify
p2186
I2204
sS'unbearable'
p2187
I2296
sS'desegregation'
p2188
I2206
sS'sentient'
p2189
I2207
sS'eligibility'
p2190
I2208
sS'unprofessional'
p2191
I2209
sVloose
p2192
I620
sVoverstatement
p2193
I2211
sS'favourably'
p2194
I2212
sS'smartest'
p2195
I639
sVinconsiderable
p2196
I2214
sS'uneven'
p2197
I2215
sS'compressed'
p2198
I2216
sS'civilians'
p2199
I2217
sS'eventful'
p2200
I2218
sS'strong'
p2201
I2220
sVtragedy
p2202
I2221
sVbreakable
p2203
I2223
sS'admits'
p2204
I2224
sS'increments'
p2205
I2225
sS'unproven'
p2206
I2226
sVconviction
p2207
I2227
sVdifficulty
p2208
I2475
sS'identifiable'
p2209
I2229
sS'losses'
p2210
I1712
sS'allows'
p2211
I2231
sS'experience'
p2212
I2232
sVlipless
p2213
I2233
sS'peaking'
p2214
I2049
sVinfrequently
p2215
I2234
sS'periodic'
p2216
I2235
sS'acquittal'
p2217
I2236
sS'musically'
p2218
I2237
sVpublished
p2219
I2238
sVaction
p2220
I2239
sS'uncontrolled'
p2221
I2497
sS'specialize'
p2222
I2240
sS'exited'
p2223
I2241
sS'sticking'
p2224
I2242
sVinvalidate
p2225
I2243
sS'followed'
p2226
I799
sVretroactive
p2227
I2245
sVunrecoverable
p2228
I2246
sS'requiring'
p2229
I817
sVimpiety
p2230
I2248
sS'emptied'
p2231
I2249
sVimpolitic
p2232
I2250
sS'follower'
p2233
I2251
sS'indoors'
p2234
I2252
sVcaptor
p2235
I2253
sVtrained
p2236
I857
sS'inorganic'
p2237
I2256
sVdecrement
p2238
I2257
sS'armed'
p2239
I875
sVinadequately
p2240
I2259
sVconventional
p2241
I2260
sS'attendance'
p2242
I896
sS'composure'
p2243
I2262
sS'correcting'
p2244
I2934
sVdistinct
p2245
I2263
sVdamaged
p2246
I2266
sVinconsistently
p2247
I4031
sS'praised'
p2248
I2268
sS'unstressed'
p2249
I2269
sS'widens'
p2250
I2270
sVpermanently
p2251
I2271
sS'unthinkable'
p2252
I2272
sS'ethically'
p2253
I2273
sVmore
p2254
I2274
sS'underprivileged'
p2255
I2275
sS'insanely'
p2256
I3961
sS'commences'
p2257
I2277
sS'abridged'
p2258
I2278
sVdematerialize
p2259
I2280
sS'corrected'
p2260
I1033
sVoutpatient
p2261
I2282
sS'captors'
p2262
I2283
sS'instrumental'
p2263
I2284
sS'commenced'
p2264
I2286
sS'misogyny'
p2265
I2486
sS'encouragement'
p2266
I3963
sS'regrettably'
p2267
I2289
sS'particular'
p2268
I1069
sS'known'
p2269
I1072
sS'suffered'
p2270
I156
sS'negativity'
p2271
I1093
sVhardware
p2272
I3964
sVcarelessly
p2273
I2295
sS'unrealistic'
p2274
I2655
sVsleeveless
p2275
I2297
sS'specializes'
p2276
I2298
sS'centrifugal'
p2277
I1144
sS'remain'
p2278
I2300
sS'ineffectual'
p2279
I1159
sVarm
p2280
I3703
sS'fronted'
p2281
I2302
sVclergy
p2282
I2303
sVunfairness
p2283
I2304
sS'playable'
p2284
I2305
sVmale
p2285
I2306
sS'specialized'
p2286
I1190
sVbeautiful
p2287
I2310
sS'stubborn'
p2288
I2311
sS'omit'
p2289
I2489
sS'antagonists'
p2290
I2313
sS'synchronized'
p2291
I2314
sS'neglected'
p2292
I2315
sVaccept
p2293
I2316
sVboycott
p2294
I2317
sS'pushed'
p2295
I2318
sVminimum
p2296
I2319
sVimitation
p2297
I2320
sS'purchased'
p2298
I2321
sVexclude
p2299
I1276
sS'disliked'
p2300
I2323
sS'narrowly'
p2301
I2325
sVcephalic
p2302
I2326
sS'unexpected'
p2303
I2507
sVadvantage
p2304
I2328
sVawkward
p2305
I2329
sS'tributaries'
p2306
I2493
sS'comfort'
p2307
I2330
sS'stayed'
p2308
I2331
sVunsystematically
p2309
I2332
sS'unlucky'
p2310
I2333
sS'weed'
p2311
I2140
sVreject
p2312
I2335
sS'activator'
p2313
I2336
sS'ingesting'
p2314
I1371
sS'hopeless'
p2315
I2338
sS'acknowledging'
p2316
I2339
sS'blacked'
p2317
I1402
sVintended
p2318
I2341
sS'inflationary'
p2319
I2342
sS'disgraced'
p2320
I2343
sS'expenditures'
p2321
I2344
sVunashamed
p2322
I2345
sS'triumphs'
p2323
I2346
sS'unsound'
p2324
I1452
sS'interior'
p2325
I2348
sS'disable'
p2326
I2349
sS'lighting'
p2327
I2350
sS'unsurprising'
p2328
I2351
sS'offset'
p2329
I4145
sS'blacker'
p2330
I2352
sS'absences'
p2331
I2353
sVabsolve
p2332
I2354
sVrefuse
p2333
I2355
sVshort
p2334
I1501
sS'inbred'
p2335
I2357
sVcourteously
p2336
I2359
sVnonindulgent
p2337
I2360
sS'artful'
p2338
I2361
sVdispensable
p2339
I2362
sVunresentful
p2340
I2363
sS'pleasure'
p2341
I2364
sVimpermissible
p2342
I2365
sS'exclusions'
p2343
I2366
sVanticyclone
p2344
I2368
sS'anonymous'
p2345
I2369
sS'uncensored'
p2346
I2370
sVdisplease
p2347
I1602
sVdysgenics
p2348
I2372
sVdeveloped
p2349
I2373
sS'oblique'
p2350
I2374
sS'confirm'
p2351
I3176
sVorganize
p2352
I2375
sS'supra'
p2353
I1796
sS'existence'
p2354
I2377
sS'concentric'
p2355
I2378
sS'suffer'
p2356
I2379
sS'disagreed'
p2357
I2381
sS'laced'
p2358
I2382
sS'rapidly'
p2359
I2383
sS'susceptible'
p2360
I2384
sVinward
p2361
I2385
sVdeniable
p2362
I2386
sS'lipped'
p2363
I2387
sS'fruitful'
p2364
I2388
sVlate
p2365
I2389
sVharmless
p2366
I2390
sVdetected
p2367
I2391
sS'disagrees'
p2368
I2392
sS'differed'
p2369
I2393
sS'conformist'
p2370
I2394
sS'demotion'
p2371
I2396
sS'materialize'
p2372
I2397
sVgood
p2373
I2398
sVdisrespectful
p2374
I2399
sS'secondarily'
p2375
I2400
sS'reassure'
p2376
I2401
sS'males'
p2377
I1807
sS'bought'
p2378
I3851
sVimmobility
p2379
I2358
sS'obeyed'
p2380
I2404
sS'spiny'
p2381
I2983
sS'unacceptably'
p2382
I2406
sVvariableness
p2383
I1843
sS'permissible'
p2384
I2408
sVdetach
p2385
I2410
sS'trustworthiness'
p2386
I1870
sS'respectful'
p2387
I2412
sS'reassured'
p2388
I2413
sVuncomplimentary
p2389
I2414
sS'finite'
p2390
I3993
sS'likeness'
p2391
I2415
sS'wishful'
p2392
I2416
sS'pregnant'
p2393
I2417
sS'always'
p2394
I1908
sVirremovable
p2395
I2419
sS'unbreakable'
p2396
I3764
sS'featured'
p2397
I2420
sVrefresh
p2398
I2421
sVbless
p2399
I1933
sVinequality
p2400
I2423
sS'stopped'
p2401
I2424
sS'uploads'
p2402
I2425
sS'reassures'
p2403
I2426
sS'aligns'
p2404
I2427
sS'intolerable'
p2405
I2428
sS'disorganized'
p2406
I2429
sS'duller'
p2407
I1949
sS'disappearing'
p2408
I2431
sVheavy
p2409
I2432
sVmalfunction
p2410
I1990
sVupstairs
p2411
I2434
sVmeaningless
p2412
I4243
sS'desirability'
p2413
I2013
sVincapableness
p2414
I1693
sS'outlawing'
p2415
I2437
sS'accidentally'
p2416
I2438
sS'punitive'
p2417
I2045
sS'connect'
p2418
I2440
sVunharness
p2419
I2441
sVorient
p2420
I2442
sVnonmonotonic
p2421
I2443
sVreverent
p2422
I2444
sVcreditor
p2423
I2446
sS'blacks'
p2424
I2447
sS'sparingly'
p2425
I2448
sS'unnatural'
p2426
I2449
sS'disadvantages'
p2427
I2450
sVelitist
p2428
I4112
sS'reverend'
p2429
I2452
sS'safeties'
p2430
I2453
sS'safety'
p2431
I2144
sS'inactivated'
p2432
I2456
sS'cyclone'
p2433
I2458
sS'aligned'
p2434
I2459
sVantonymous
p2435
I2168
sS'igniting'
p2436
I2461
sS'attentions'
p2437
I2462
sVunbuckle
p2438
I2463
sS'expansive'
p2439
I2464
sVunidentifiable
p2440
I2465
sVdisobedience
p2441
I2190
sS'belief'
p2442
I2467
sS'risen'
p2443
I2468
sS'offsets'
p2444
I2469
sS'driver'
p2445
I2470
sS'enforcing'
p2446
I2471
sS'lesser'
p2447
I2473
sS'pleasant'
p2448
I2474
sS'extraordinary'
p2449
I2228
sVqualify
p2450
I2476
sS'brightest'
p2451
I2477
sS'members'
p2452
I2478
sS'bidirectional'
p2453
I2479
sS'plurals'
p2454
I2480
sS'rises'
p2455
I1880
sS'beginning'
p2456
I2482
sS'exportation'
p2457
I3804
sS'decoded'
p2458
I2483
sS'uplands'
p2459
I2484
sVuninfluential
p2460
I2485
sS'unresolved'
p2461
I2287
sS'materialised'
p2462
I3259
sS'perceptible'
p2463
I2488
sS'needing'
p2464
I2312
sVinappropriately
p2465
I2490
sVdomineering
p2466
I2491
sS'predate'
p2467
I2492
sVdissuasion
p2468
I860
sVundependableness
p2469
I2494
sVdisincentive
p2470
I2495
sS'compliance'
p2471
I2230
sS'omits'
p2472
I2496
sS'euphemism'
p2473
I2367
sS'botany'
p2474
I2498
sS'unhealthy'
p2475
I2380
sVfull-term
p2476
I2500
sS'relate'
p2477
I2501
sS'inland'
p2478
I2552
sVwelcome
p2479
I2503
sS'linking'
p2480
I2504
sS'unaccompanied'
p2481
I2505
sVinfinite
p2482
I4010
sVincorporeal
p2483
I1651
sS'effortless'
p2484
I2508
sS'slower'
p2485
I2509
sS'distributive'
p2486
I2510
sS'euphoria'
p2487
I2511
sVmiss
p2488
I2512
sVillicitly
p2489
I1821
sS'obligatory'
p2490
I2526
sVdiffer
p2491
I2515
sS'breathless'
p2492
I2516
sVunfavorable
p2493
I3828
sS'indulgent'
p2494
I2517
sVunclog
p2495
I2518
sS'interwoven'
p2496
I2519
sVprokaryote
p2497
I2520
sS'tougher'
p2498
I2521
sS'moderately'
p2499
I2522
sS'obedience'
p2500
I2523
sS'construct'
p2501
I2524
sS'sweetest'
p2502
I2525
sS'hallowed'
p2503
I2514
sVclear_up
p2504
I2527
sS'tighter'
p2505
I4014
sS'hibernate'
p2506
I1828
sS'artefact'
p2507
I4164
sS'smoothed'
p2508
I2532
sS'merciless'
p2509
I2533
sS'motility'
p2510
I2534
sS'justly'
p2511
I2535
sVsynthetic
p2512
I2536
sS'dethroned'
p2513
I2537
sVuninstructive
p2514
I2538
sS'helpful'
p2515
I4083
sS'defused'
p2516
I2539
sS'basal'
p2517
I2541
sVappreciation
p2518
I2542
sVindecisively
p2519
I2543
sVfavorable
p2520
I2544
sS'taxable'
p2521
I2545
sS'consonant'
p2522
I2546
sVfall_asleep
p2523
I2162
sS'endlessly'
p2524
I1759
sS'uncut'
p2525
I2549
sS'undefined'
p2526
I2550
sS'peaked'
p2527
I2551
sVungrateful
p2528
I870
sS'critically'
p2529
I2553
sVcyclic
p2530
I2554
sVprevent
p2531
I2555
sVexempt
p2532
I4061
sS'impersonal'
p2533
I2556
sVpurposeless
p2534
I2557
sVutopia
p2535
I2559
sVdetermined
p2536
I2265
sVsedate
p2537
I2561
sVoutdoors
p2538
I2562
sS'elaborate'
p2539
I2563
sVundock
p2540
I2564
sS'tonality'
p2541
I2565
sS'remembers'
p2542
I2566
sS'interactive'
p2543
I2567
sVpostdate
p2544
I2568
sVunhappily
p2545
I668
sVinappropriateness
p2546
I2569
sVstrengthen
p2547
I2570
sS'imports'
p2548
I2571
sS'heaviest'
p2549
I2572
sVoverstate
p2550
I2573
sS'juicy'
p2551
I2574
sVaffirmative
p2552
I2575
sS'alike'
p2553
I2576
sS'cleaned'
p2554
I2577
sVunafraid
p2555
I2578
sS'thickened'
p2556
I2910
sS'aged'
p2557
I1795
sVunaggressive
p2558
I2580
sS'vulnerable'
p2559
I2581
sVsell
p2560
I2582
sVlie
p2561
I2583
sVhopelessly
p2562
I2584
sS'nights'
p2563
I3286
sS'permanence'
p2564
I2586
sS'imitations'
p2565
I2587
sS'conforming'
p2566
I2588
sS'majority'
p2567
I2589
sS'empirically'
p2568
I2590
sS'internal'
p2569
I2591
sVundramatic
p2570
I2592
sS'unscheduled'
p2571
I250
sVfrail
p2572
I2594
sS'aggravating'
p2573
I2595
sVindiscernible
p2574
I2597
sS'folded'
p2575
I3329
sS'extensible'
p2576
I2598
sVseedless
p2577
I2599
sS'added'
p2578
I2600
sS'artesian'
p2579
I4045
sS'oft'
p2580
I4023
sS'approves'
p2581
I2601
sS'multilingual'
p2582
I2602
sS'equipping'
p2583
I2603
sVunceremoniously
p2584
I623
sS'most'
p2585
I2605
sS'hired'
p2586
I2606
sS'experiences'
p2587
I2607
sS'significant'
p2588
I2608
sS'starboard'
p2589
I4026
sS'accepting'
p2590
I2610
sS'associating'
p2591
I2670
sVwisdom
p2592
I2612
sS'gregarious'
p2593
I2613
sVunremarkably
p2594
I2614
sVbe_full
p2595
I2615
sVunrespectability
p2596
I2616
sS'unequal'
p2597
I2617
sS'unsupervised'
p2598
I2618
sVmobile
p2599
I2619
sVclear
p2600
I2620
sVpopularity
p2601
I2621
sS'luckily'
p2602
I2622
sS'traditional'
p2603
I2623
sS'nationalized'
p2604
I2624
sVunweave
p2605
I2531
sVorganise
p2606
I2626
sS'intelligently'
p2607
I2627
sVclean
p2608
I2628
sVnarrow
p2609
I2629
sS'usual'
p2610
I4028
sS'attacking'
p2611
I2631
sVdrunkenness
p2612
I2632
sVundesirability
p2613
I2633
sVunimportance
p2614
I2634
sVnon-invertible
p2615
I2635
sS'hipped'
p2616
I2636
sS'degrades'
p2617
I2638
sS'converge'
p2618
I2639
sVnoncitizen
p2619
I2640
sS'inflexible'
p2620
I2641
sS'disapproved'
p2621
I2642
sS'malignant'
p2622
I2643
sS'acceptability'
p2623
I2644
sVmultilateral
p2624
I2645
sS'immaturity'
p2625
I2646
sS'degraded'
p2626
I2647
sVcommonality
p2627
I3793
sVfine
p2628
I2648
sVnonrepresentational
p2629
I2649
sVunrighteous
p2630
I3363
sS'exteriors'
p2631
I2650
sVstifle
p2632
I2547
sVnorthern
p2633
I2652
sVspineless
p2634
I2653
sS'justice'
p2635
I2654
sVheedlessness
p2636
I2548
sVherbivorous
p2637
I2656
sVunhappy
p2638
I2657
sVdestabilize
p2639
I2658
sS'impenetrable'
p2640
I2659
sVunjustly
p2641
I2660
sS'aground'
p2642
I2661
sS'removable'
p2643
I2662
sS'criticising'
p2644
I2637
sS'hardened'
p2645
I2664
sS'merged'
p2646
I2665
sVunfaceted
p2647
I2666
sS'clarifying'
p2648
I2667
sS'intractable'
p2649
I2668
sS'uncontested'
p2650
I2669
sS'king'
p2651
I2671
sS'secular'
p2652
I2672
sVexpress
p2653
I2673
sVunconventionally
p2654
I2674
sS'cheaper'
p2655
I2675
sVcourage
p2656
I2676
sS'hid'
p2657
I2677
sS'fastest'
p2658
I2678
sVdocile
p2659
I2679
sS'intensify'
p2660
I2680
sS'emails'
p2661
I2681
sVfallible
p2662
I2682
sVthin_person
p2663
I4277
sS'unilaterally'
p2664
I3364
sVprogressive
p2665
I2684
sVnoncrystalline
p2666
I2685
sVcry
p2667
I2686
sS'surrendering'
p2668
I2688
sS'reputable'
p2669
I2689
sS'filled'
p2670
I2690
sS'activity'
p2671
I2691
sVuntrustworthiness
p2672
I2585
sVinsane
p2673
I1013
sVhairy
p2674
I2694
sS'condemnation'
p2675
I2695
sS'extensor'
p2676
I2696
sS'disapproving'
p2677
I2697
sVintemperate
p2678
I2699
sS'unpublished'
p2679
I2700
sVoutboard
p2680
I2701
sVpotent
p2681
I2702
sS'discredit'
p2682
I2868
sVplausible
p2683
I2703
sVirregularly
p2684
I2704
sVunsanitary
p2685
I2705
sS'manly'
p2686
I2706
sVvocal
p2687
I2707
sS'surrendered'
p2688
I2708
sVinefficacy
p2689
I4041
sVtender
p2690
I2710
sVuntimbered
p2691
I2711
sS'changeable'
p2692
I2712
sS'theoretic'
p2693
I2713
sS'detached'
p2694
I1817
sS'locals'
p2695
I2715
sVprobable
p2696
I2717
sS'plasticity'
p2697
I2718
sS'resolute'
p2698
I2719
sVpositivity
p2699
I2720
sVplease
p2700
I2721
sS'precocious'
p2701
I2722
sS'rejecting'
p2702
I2723
sS'coordination'
p2703
I4043
sS'degrading'
p2704
I2725
sVobfuscate
p2705
I2560
sVincaution
p2706
I2727
sS'assertive'
p2707
I711
sS'internationalism'
p2708
I2730
sS'subscript'
p2709
I2731
sS'corruption'
p2710
I2732
sVavailable
p2711
I936
sS'milder'
p2712
I2734
sS'strangest'
p2713
I2735
sVinvisibly
p2714
I2736
sVahistorical
p2715
I2737
sS'sold'
p2716
I2739
sS'attention'
p2717
I2740
sVdisallow
p2718
I2741
sVincommensurate
p2719
I2742
sVstyleless
p2720
I2743
sS'succeed'
p2721
I2744
sVtearless
p2722
I2745
sVinvisible
p2723
I1608
sS'relying'
p2724
I1782
sVperfection
p2725
I2748
sS'minimizing'
p2726
I3255
sVunapologetic
p2727
I2749
sS'tangible'
p2728
I2750
sS'widest'
p2729
I2751
sS'faithfulness'
p2730
I4166
sS'influential'
p2731
I2752
sS'carelessness'
p2732
I2753
sS'fame'
p2733
I2746
sS'foreign'
p2734
I2754
sVquadruped
p2735
I2755
sVsensitive
p2736
I2756
sS'connection'
p2737
I2757
sS'improves'
p2738
I2758
sS'forgotten'
p2739
I2759
sS'poverty'
p2740
I3296
sS'inclusions'
p2741
I2761
sVapprove
p2742
I304
sVimmotility
p2743
I2764
sVunmusically
p2744
I2765
sVthinkable
p2745
I2766
sVdysphemism
p2746
I2767
sS'elaborating'
p2747
I2768
sS'expendable'
p2748
I2769
sVheaded
p2749
I2770
sVunsoundness
p2750
I2771
sS'acted'
p2751
I2772
sS'uncivil'
p2752
I2773
sS'corresponds'
p2753
I2774
sVinflexibility
p2754
I2775
sVcenogenesis
p2755
I2776
sVregulated
p2756
I2777
sVunsuccessful
p2757
I2778
sS'embarked'
p2758
I4272
sVimprovement
p2759
I2779
sS'expensive'
p2760
I2781
sS'patiently'
p2761
I2782
sVunprovocative
p2762
I2783
sS'worthless'
p2763
I2784
sVraise
p2764
I1205
sS'inadmissible'
p2765
I2786
sS'incomes'
p2766
I2787
sS'scented'
p2767
I2788
sVintracellular
p2768
I2789
sS'creativity'
p2769
I2790
sVdue
p2770
I2791
sVuncritically
p2771
I2793
sS'convicted'
p2772
I2794
sVunpatriotic
p2773
I2795
sS'faithfully'
p2774
I2796
sS'coarse'
p2775
I2797
sS'anisotropic'
p2776
I2798
sS'preventable'
p2777
I2799
sS'intrusive'
p2778
I2800
sVempty
p2779
I2801
sVnonpsychoactive
p2780
I2802
sS'unclear'
p2781
I3888
sS'sleeved'
p2782
I2803
sS'raced'
p2783
I2804
sS'sobriety'
p2784
I2805
sS'silenced'
p2785
I2806
sVfire
p2786
I2807
sVdeflationary
p2787
I2808
sVwet
p2788
I2809
sVimprudence
p2789
I2810
sS'precision'
p2790
I2811
sS'adaptable'
p2791
I2812
sS'moderation'
p2792
I2813
sS'competencies'
p2793
I2814
sS'recalled'
p2794
I2815
sS'coalitions'
p2795
I2816
sS'systematic'
p2796
I2817
sS'opposites'
p2797
I2818
sVgrand_larceny
p2798
I2819
sS'resisted'
p2799
I2820
sVhardness
p2800
I31
sS'inclement'
p2801
I2824
sS'practicality'
p2802
I2825
sVconception
p2803
I50
sVwrongness
p2804
I2827
sVsolid
p2805
I296
sS'reliable'
p2806
I69
sS'expanded'
p2807
I73
sS'empirical'
p2808
I2831
sVravel
p2809
I4062
sS'admire'
p2810
I2833
sS'forgetting'
p2811
I2834
sVsocialism
p2812
I2835
sS'compactness'
p2813
I2836
sS'reliably'
p2814
I2837
sVinvolved
p2815
I3311
sVunappreciatively
p2816
I2839
sS'clouded'
p2817
I2840
sVuncompromising
p2818
I2842
sVscheduled
p2819
I2843
sVunclearness
p2820
I2844
sVatonality
p2821
I165
sS'violently'
p2822
I2847
sVobtrusive
p2823
I2848
sS'faceted'
p2824
I2849
sS'bipedal'
p2825
I2850
sS'flashbacks'
p2826
I3833
sVdestabilization
p2827
I2851
sS'anode'
p2828
I2852
sS'beautifully'
p2829
I2683
sS'vanish'
p2830
I220
sS'fairer'
p2831
I2855
sVunnoticeable
p2832
I2857
sVmonophonic_music
p2833
I2858
sS'confirms'
p2834
I2579
sS'stimulates'
p2835
I2860
sS'benevolence'
p2836
I3314
sS'fetching'
p2837
I2738
sVdishonor
p2838
I2780
sVcomplicate
p2839
I4292
sS'shorter'
p2840
I2866
sVbenign
p2841
I2867
sS'stimulated'
p2842
I297
sS'orientated'
p2843
I2869
sVunsusceptibility
p2844
I2870
sS'ugliness'
p2845
I1965
sVproved
p2846
I2872
sVimpious
p2847
I2873
sS'daughters'
p2848
I2874
sVunwary
p2849
I342
sS'disenchanted'
p2850
I2877
sS'arrives'
p2851
I2879
sS'displeased'
p2852
I2880
sS'fatty'
p2853
I2881
sVcollective
p2854
I4209
sVpainless
p2855
I370
sS'husbands'
p2856
I2883
sVpatriotic
p2857
I2884
sS'strength'
p2858
I2885
sS'arrived'
p2859
I1318
sS'decency'
p2860
I2887
sS'anhydrous'
p2861
I2888
sS'robust'
p2862
I2889
sS'usefully'
p2863
I2890
sVtimid
p2864
I411
sS'conveniently'
p2865
I2892
sVdark
p2866
I2893
sVlower
p2867
I2894
sVabnormality
p2868
I2895
sS'infertility'
p2869
I2896
sS'equalled'
p2870
I2897
sS'persuasive'
p2871
I463
sS'docked'
p2872
I2900
sS'wedged'
p2873
I2901
sVcheer
p2874
I2902
sS'converged'
p2875
I2903
sVineffectiveness
p2876
I2904
sS'withdraw'
p2877
I496
sS'recoverable'
p2878
I592
sS'breastfeeding'
p2879
I2907
sS'moving'
p2880
I2886
sVabstain
p2881
I531
sVprecedented
p2882
I1603
sVegoistic
p2883
I2911
sVinarticulately
p2884
I2912
sS'migratory'
p2885
I2913
sS'scrupulous'
p2886
I2914
sVincongruity
p2887
I558
sVimpreciseness
p2888
I2916
sS'competitive'
p2889
I2917
sS'unwanted'
p2890
I2918
sS'daybreak'
p2891
I3325
sS'elegance'
p2892
I2920
sS'questions'
p2893
I585
sS'love'
p2894
I2922
sS'holiness'
p2895
I2923
sVdishonesty
p2896
I2924
sVuselessly
p2897
I610
sVprofitable
p2898
I2926
sS'departs'
p2899
I3182
sVsuperficial
p2900
I2928
sVloading
p2901
I2929
sS'relevancy'
p2902
I2930
sVnondevelopment
p2903
I637
sVelation
p2904
I2932
sS'informal'
p2905
I2933
sS'hated'
p2906
I645
sS'workers'
p2907
I2935
sVunscholarly
p2908
I2936
sS'desist'
p2909
I1706
sS'declined'
p2910
I3705
sS'speedily'
p2911
I2395
sVindecorousness
p2912
I2939
sS'parents'
p2913
I681
sS'bravery'
p2914
I2941
sS'comprehensible'
p2915
I693
sVunplayable
p2916
I2943
sS'decontamination'
p2917
I2944
sS'impoverished'
p2918
I2945
sS'profitably'
p2919
I2946
sS'remaining'
p2920
I2947
sS'hates'
p2921
I714
sS'useless'
p2922
I360
sVdependability
p2923
I2950
sS'inelastic'
p2924
I2951
sVhomozygous
p2925
I2953
sS'complains'
p2926
I2954
sS'adversaries'
p2927
I2955
sS'conformed'
p2928
I2956
sVbig
p2929
I2957
sVjoyless
p2930
I750
sS'laughed'
p2931
I1928
sS'unlimited'
p2932
I19
sVcheerlessly
p2933
I2961
sS'wives'
p2934
I2962
sS'enthusiastically'
p2935
I2963
sVnoncompetitively
p2936
I2964
sS'logical'
p2937
I2965
sS'foreigners'
p2938
I2966
sS'wiser'
p2939
I2967
sVimprovident
p2940
I4071
sVantiseptic
p2941
I2968
sS'sharpened'
p2942
I2969
sS'competitively'
p2943
I2970
sVformal
p2944
I2971
sS'realistically'
p2945
I3633
sS'degenerated'
p2946
I2972
sS'dislodged'
p2947
I2973
sS'improbable'
p2948
I2974
sS'systematically'
p2949
I2975
sS'follows'
p2950
I2976
sS'interestingly'
p2951
I2977
sS'adiabatic'
p2952
I2978
sVunadaptable
p2953
I872
sS'achievers'
p2954
I2980
sVdistrust
p2955
I2981
sVcontinue
p2956
I2982
sS'unstable'
p2957
I2285
sS'borrows'
p2958
I2984
sS'starry'
p2959
I4087
sS'popular'
p2960
I2986
sVsoftness
p2961
I897
sS'foolish'
p2962
I2988
sS'alignments'
p2963
I2989
sS'essential'
p2964
I2990
sVnoninterference
p2965
I2991
sVcentralize
p2966
I2992
sVoften
p2967
I2993
sS'humorous'
p2968
I2994
sS'fathers'
p2969
I2995
sVdownwards
p2970
I1542
sVsome
p2971
I957
sVundress
p2972
I962
sVunhook
p2973
I2309
sS'strongest'
p2974
I2999
sVinsincere
p2975
I983
sS'hurriedly'
p2976
I990
sVpromotion
p2977
I4124
sS'selfishness'
p2978
I3002
sS'parasite'
p2979
I4090
sS'sanctified'
p2980
I3247
sS'amicable'
p2981
I3004
sS'irresistible'
p2982
I1024
sVacquaintance
p2983
I1040
sVunquotable
p2984
I1053
sS'prides'
p2985
I1621
sVvagile
p2986
I903
sS'integration'
p2987
I3010
sVconditionally
p2988
I1081
sVquickly
p2989
I4181
sS'connecting'
p2990
I3013
sVmasculinity
p2991
I3014
sS'forgets'
p2992
I3016
sS'minimal'
p2993
I3017
sS'squandered'
p2994
I3783
sVsympathetic
p2995
I3018
sVpatient
p2996
I1150
sS'heed'
p2997
I4092
sVspecify
p2998
I3021
sS'remembered'
p2999
I3022
sVnonfunctional
p3000
I4093
sS'continuing'
p3001
I3024
sVagreement
p3002
I3025
sS'refused'
p3003
I3026
sS'onside'
p3004
I537
sS'restrictive'
p3005
I3028
sS'cheered'
p3006
I3343
sS'negatives'
p3007
I1202
sS'helpfully'
p3008
I2376
sS'relating'
p3009
I3032
sVshorten
p3010
I2864
sS'subtract'
p3011
I3033
sVoffside
p3012
I2071
sS'elderly'
p3013
I3035
sS'unconfirmed'
p3014
I3036
sS'serviceable'
p3015
I4155
sS'cautious'
p3016
I1239
sS'exaggerated'
p3017
I3038
sVnominative
p3018
I4095
sVimpermeability
p3019
I1264
sS'straightened'
p3020
I3041
sS'conciliatory'
p3021
I1274
sVamphoteric
p3022
I3043
sVrepulsion
p3023
I3044
sS'outward'
p3024
I4173
sS'hatred'
p3025
I3046
sS'complimentary'
p3026
I3047
sVsilence
p3027
I3048
sVcredible
p3028
I3049
sVrepair
p3029
I3050
sS'convergent'
p3030
I2457
sVnoninvasive
p3031
I3052
sVincoherence
p3032
I1343
sS'auntie'
p3033
I3054
sVdecertify
p3034
I1356
sS'within'
p3035
I1359
sS'falsehood'
p3036
I2728
sVdissatisfaction
p3037
I3058
sVunattributable
p3038
I3059
sS'inaction'
p3039
I4208
sVappropriate
p3040
I3060
sS'inhospitable'
p3041
I3061
sVprimarily
p3042
I3062
sVnonparticipation
p3043
I3063
sVcredibly
p3044
I3064
sS'radioactive'
p3045
I1572
sS'uncertainties'
p3046
I1438
sS'innate'
p3047
I3067
sS'harnessed'
p3048
I3068
sVtreated
p3049
I3069
sVtake_away
p3050
I3070
sS'question'
p3051
I3071
sS'specifically'
p3052
I888
sS'approved'
p3053
I3073
sVdisinflation
p3054
I3075
sS'rivalries'
p3055
I3076
sS'veracity'
p3056
I3077
sVforward
p3057
I3078
sVunenthusiastic
p3058
I3079
sVanalyze
p3059
I1508
sS'disallowed'
p3060
I3081
sS'bester'
p3061
I3353
sS'melodic'
p3062
I3083
sS'insensitivity'
p3063
I3084
sS'governs'
p3064
I3085
sS'graciously'
p3065
I3086
sVregistered
p3066
I1551
sVsolidity
p3067
I3088
sVunexpendable
p3068
I3089
sS'psychoactive'
p3069
I3090
sS'boys'
p3070
I3091
sVsubjectively
p3071
I1579
sVflexor
p3072
I3093
sVsegregation
p3073
I3094
sS'newer'
p3074
I3095
sVclassified
p3075
I3096
sS'patronised'
p3076
I2792
sS'clarify'
p3077
I3586
sVpain
p3078
I3099
sVdull
p3079
I1604
sS'hastily'
p3080
I3674
sS'holiest'
p3081
I3101
sVresistible
p3082
I3102
sS'liberators'
p3083
I1615
sS'nieces'
p3084
I3105
sS'fissile'
p3085
I3106
sS'inhumane'
p3086
I1639
sS'detachable'
p3087
I3108
sVup
p3088
I3109
sS'lessened'
p3089
I3110
sVmaturity
p3090
I1662
sS'cautiously'
p3091
I3112
sVasynchronism
p3092
I3359
sVuninitiate
p3093
I1680
sVheterogeneous
p3094
I3115
sVexport
p3095
I4110
sVhappiness
p3096
I4044
sS'loving'
p3097
I3116
sS'similar'
p3098
I3117
sVestivate
p3099
I3118
sVlumper
p3100
I1717
sS'associated'
p3101
I3120
sS'adults'
p3102
I3121
sS'mindful'
p3103
I3122
sVdefined
p3104
I3123
sS'congruence'
p3105
I3124
sS'unsafe'
p3106
I3125
sS'accessibility'
p3107
I3126
sS'singly'
p3108
I3127
sVunreasonable
p3109
I3128
sVdeprive
p3110
I3129
sS'satisfies'
p3111
I3766
sVtuneless
p3112
I3130
sS'obtuse'
p3113
I3131
sS'graceful'
p3114
I3132
sS'formalism'
p3115
I2878
sVnationalism
p3116
I3134
sS'denying'
p3117
I3135
sVinoffensively
p3118
I3136
sS'predictability'
p3119
I3137
sS'ancestors'
p3120
I3138
sVconductor
p3121
I722
sVunjustifiably
p3122
I3140
sVdisembarkation
p3123
I3141
sS'neglecting'
p3124
I4117
sS'malicious'
p3125
I3143
sS'fears'
p3126
I3144
sVtactlessness
p3127
I1856
sS'competences'
p3128
I1931
sS'democratically'
p3129
I3147
sS'conceptions'
p3130
I3148
sVyang
p3131
I3149
sVdisenchant
p3132
I3150
sVincome
p3133
I3151
sS'shallower'
p3134
I3152
sVinglorious
p3135
I3153
sVirreplaceable
p3136
I3154
sVconfine
p3137
I1897
sVdeviate
p3138
I3156
sVnice
p3139
I3157
sS'actively'
p3140
I3158
sS'conventionally'
p3141
I2611
sS'beginnings'
p3142
I3160
sVlend
p3143
I3161
sS'understatement'
p3144
I3162
sS'prosecution'
p3145
I2451
sVprepared
p3146
I3164
sS'intensified'
p3147
I3165
sS'allowing'
p3148
I3166
sVoldness
p3149
I3167
sVdesynchronizing
p3150
I3155
sS'deciphered'
p3151
I3168
sS'unenforceable'
p3152
I3169
sVde-energize
p3153
I3170
sS'worsened'
p3154
I2021
sS'deterrence'
p3155
I2026
sS'happier'
p3156
I3173
sS'complicating'
p3157
I3175
sS'required'
p3158
I2540
sS'awakes'
p3159
I3177
sVbequeath
p3160
I3178
sS'walked'
p3161
I3179
sS'admiring'
p3162
I3180
sS'impatient'
p3163
I258
sVungratefully
p3164
I2077
sS'declination'
p3165
I3183
sS'incomplete'
p3166
I3184
sS'wary'
p3167
I3185
sS'retardation'
p3168
I2096
sS'fresh'
p3169
I3188
sS'underrated'
p3170
I3189
sS'imprecise'
p3171
I177
sS'proximate'
p3172
I2112
sS'evenly'
p3173
I3192
sVpartial
p3174
I3193
sVserviceman
p3175
I3194
sS'incorporate'
p3176
I3195
sVnonattendance
p3177
I3197
sVuncreativeness
p3178
I3199
sVlowland
p3179
I3200
sVstaleness
p3180
I3201
sS'alien'
p3181
I2167
sS'debtors'
p3182
I3376
sS'renown'
p3183
I3204
sS'hypothyroidism'
p3184
I3205
sS'broader'
p3185
I3206
sVgo
p3186
I3207
sS'attracted'
p3187
I1425
sS'flashback'
p3188
I3209
sVinattentive
p3189
I3377
sS'worrisome'
p3190
I3211
sVcompact
p3191
I2205
sS'excludes'
p3192
I3213
sS'lifting'
p3193
I3637
sS'breached'
p3194
I3214
sVnationalization
p3195
I3215
sS'uphold'
p3196
I3216
sS'rivalry'
p3197
I3378
sVyoung
p3198
I3219
sVungrudgingly
p3199
I3379
sS'uninformative'
p3200
I3220
sVunpeaceful
p3201
I3221
sS'outwards'
p3202
I3222
sS'excluded'
p3203
I3223
sVstable
p3204
I3224
sVdesynchronize
p3205
I1942
sVdislike
p3206
I3226
sS'enlightenment'
p3207
I743
sS'friendly'
p3208
I3228
sS'uploaded'
p3209
I1105
sVvirtuous
p3210
I3230
sS'random'
p3211
I1834
sVimplicitly
p3212
I3232
sS'continues'
p3213
I3233
sS'prudence'
p3214
I3234
sS'exiled'
p3215
I3235
sS'unstructured'
p3216
I3236
sVindication
p3217
I3237
sS'felicity'
p3218
I3238
sS'materialise'
p3219
I3239
sS'implausible'
p3220
I3240
sS'lacking'
p3221
I3241
sVdiscouragement
p3222
I3242
sVindecorum
p3223
I3243
sS'continued'
p3224
I3244
sS'necessitating'
p3225
I3245
sS'arrange'
p3226
I3246
sS'biggest'
p3227
I4201
sS'efficacy'
p3228
I4256
sVincoherent
p3229
I478
sS'sanctity'
p3230
I3248
sS'diverging'
p3231
I3249
sVnonmigratory
p3232
I3250
sVunmalicious
p3233
I3251
sS'fewer'
p3234
I3252
sS'damning'
p3235
I3253
sVinelegant
p3236
I3254
sVmachine-made
p3237
I2454
sS'avoiding'
p3238
I3256
sVmobilize
p3239
I3258
sS'friendliness'
p3240
I2487
sS'enforce'
p3241
I3260
sS'calmed'
p3242
I3261
sS'impressively'
p3243
I3262
sS'lightest'
p3244
I3263
sS'unprofitable'
p3245
I170
sVrevocable
p3246
I3265
sVunprofitably
p3247
I3266
sVuncomfortable
p3248
I3267
sVrealistic
p3249
I4123
sVdownload
p3250
I3268
sS'unimproved'
p3251
I3269
sS'odd'
p3252
I3270
sS'depression'
p3253
I3271
sVscientific
p3254
I3272
sS'unavailable'
p3255
I1612
sS'invertible'
p3256
I3275
sS'opaque'
p3257
I3276
sS'waning'
p3258
I3277
sVdiscontinuance
p3259
I3278
sS'exacerbate'
p3260
I3279
sVinconstancy
p3261
I3280
sVunhelpful
p3262
I3281
sS'consistently'
p3263
I3282
sVgracelessly
p3264
I3030
sVaperiodic
p3265
I1436
sS'releasing'
p3266
I3925
sS'obvious'
p3267
I3389
sS'aligning'
p3268
I3907
sS'insecure'
p3269
I1431
sVunairworthy
p3270
I3288
sVunenthusiastically
p3271
I3289
sS'apologetic'
p3272
I3290
sVdeciduous_plant
p3273
I3257
sVnonexistent
p3274
I3292
sS'youngest'
p3275
I3293
sS'growing'
p3276
I3294
sS'awakens'
p3277
I2651
sVfocused
p3278
I2760
sS'expansion'
p3279
I4140
sS'separation'
p3280
I3298
sS'dissuade'
p3281
I3299
sS'applauded'
p3282
I2593
sS'safer'
p3283
I3301
sS'enterprising'
p3284
I3302
sS'imperfections'
p3285
I608
sS'widening'
p3286
I3304
sS'newness'
p3287
I3305
sVengage
p3288
I3306
sS'indivisible'
p3289
I2823
sS'uneasy'
p3290
I3309
sVconceit
p3291
I3310
sS'withdrawing'
p3292
I2838
sVunwittingly
p3293
I3312
sVstupidity
p3294
I3313
sS'headless'
p3295
I2861
sVrepel
p3296
I3315
sVendogenic
p3297
I2875
sVdecriminalise
p3298
I3317
sS'merges'
p3299
I3318
sS'existent'
p3300
I3319
sS'antecedents'
p3301
I3320
sS'climb'
p3302
I532
sS'disowned'
p3303
I3322
sVhonor
p3304
I3323
sS'chaste'
p3305
I3324
sS'decentralized'
p3306
I2919
sS'stabilization'
p3307
I3326
sVfalsity
p3308
I356
sVforbid
p3309
I3328
sVbreathing
p3310
I3231
sVdisobey
p3311
I3330
sS'manage'
p3312
I2952
sVsameness
p3313
I3332
sVimmoderation
p3314
I3333
sVundemocratically
p3315
I3334
sVunwillingly
p3316
I3335
sS'assemble'
p3317
I2698
sVdecrease
p3318
I3337
sVprivately
p3319
I3338
sS'prohibiting'
p3320
I3399
sS'clockwise'
p3321
I3340
sVatypically
p3322
I3481
sVinconveniently
p3323
I3341
sS'speciality'
p3324
I3400
sS'integrates'
p3325
I3561
sS'strapped'
p3326
I3342
sS'dissonance'
p3327
I3029
sS'proactive'
p3328
I3344
sS'recalling'
p3329
I3345
sVillegal
p3330
I3346
sS'seamless'
p3331
I3347
sS'adequacy'
p3332
I3348
sS'figurative'
p3333
I3349
sVfew
p3334
I3350
sS'doubt'
p3335
I3351
sVcontentment
p3336
I3352
sVimmodestly
p3337
I3082
sS'availability'
p3338
I3354
sS'constitutionally'
p3339
I3355
sVretail
p3340
I3356
sVagreeable
p3341
I3357
sVhumorless
p3342
I3104
sVnonpolitical
p3343
I3113
sVunequally
p3344
I2267
sS'sons'
p3345
I3361
sS'slim'
p3346
I3404
sVformally
p3347
I1131
sS'intensifying'
p3348
I3146
sVinfamy
p3349
I3365
sS'untamed'
p3350
I3366
sS'started'
p3351
I3367
sS'undeclared'
p3352
I3368
sS'incapacitating'
p3353
I2663
sS'visibility'
p3354
I3370
sS'disarming'
p3355
I3371
sVfoolishly
p3356
I2841
sVderegulate
p3357
I3373
sS'ashamed'
p3358
I3374
sS'informally'
p3359
I3198
sS'demobilization'
p3360
I3203
sS'unfaithful'
p3361
I3210
sS'disabling'
p3362
I3217
sVpotential
p3363
I2716
sS'verity'
p3364
I1702
sS'uncontroversial'
p3365
I1123
sS'disingenuous'
p3366
I3383
sS'wrongs'
p3367
I3066
sS'integrating'
p3368
I3384
sVride
p3369
I3386
sVavascular
p3370
I3387
sS'unreal'
p3371
I1969
sS'irreparable'
p3372
I3285
sVthin
p3373
I3390
sVpraise
p3374
I3391
sS'backwards'
p3375
I3392
sS'closing'
p3376
I3393
sVinhibitor
p3377
I3394
sS'withdrew'
p3378
I4154
sS'purity'
p3379
I3396
sVcontinuity
p3380
I3397
sS'weaker'
p3381
I3398
sVreserved
p3382
I3339
sS'unveiled'
p3383
I3174
sVthirsty
p3384
I3401
sVhypersomnia
p3385
I3402
sVlock
p3386
I3403
sS'inaccessible'
p3387
I3362
sS'high'
p3388
I3406
sS'effectively'
p3389
I3407
sVlegible
p3390
I3408
sVbend
p3391
I3409
sS'employs'
p3392
I3410
sS'intramural'
p3393
I3411
sVovertly
p3394
I3412
sVstale
p3395
I2747
sVweaken
p3396
I3413
sS'sis'
p3397
I3414
sS'unclassified'
p3398
I3415
sS'united'
p3399
I3416
sVnonextensile
p3400
I3417
sS'hydrophilic'
p3401
I3418
sS'friendlies'
p3402
I3419
sVintelligible
p3403
I3420
sVunrelatedness
p3404
I3421
sVnearness
p3405
I3422
sS'uncompressed'
p3406
I943
sVpatronize
p3407
I3424
sS'winners'
p3408
I3425
sVreducible
p3409
I1566
sS'complained'
p3410
I3427
sVlodge
p3411
I3372
sS'aft'
p3412
I3429
sVunidirectional
p3413
I4158
sS'grudgingly'
p3414
I3431
sS'comedy'
p3415
I3432
sS'intelligent'
p3416
I3433
sVdefeat
p3417
I3434
sVunserviceable
p3418
I1426
sS'maternal'
p3419
I3436
sS'attend'
p3420
I3437
sVsingular
p3421
I3438
sS'highs'
p3422
I1136
sS'tact'
p3423
I3440
sS'peace'
p3424
I3441
sVunseductive
p3425
I3442
sS'nullify'
p3426
I3443
sVdiscomfort
p3427
I3444
sS'complainant'
p3428
I3445
sVlegality
p3429
I3446
sVunnaturally
p3430
I3447
sS'disproved'
p3431
I3448
sVprolix
p3432
I3449
sS'loaned'
p3433
I3450
sS'efficiently'
p3434
I3451
sVambiguous
p3435
I3452
sS'majorities'
p3436
I3453
sVbind
p3437
I3455
sVsit
p3438
I3456
sVunprejudiced
p3439
I3457
sS'correspond'
p3440
I989
sVmalevolence
p3441
I3459
sS'synchronization'
p3442
I3460
sVdecolonise
p3443
I3461
sS'allow'
p3444
I3462
sS'humorously'
p3445
I4131
sS'volunteers'
p3446
I3463
sS'divided'
p3447
I3464
sS'longest'
p3448
I3465
sS'ignite'
p3449
I3466
sS'unsolved'
p3450
I3467
sVunderstate
p3451
I3468
sS'beauties'
p3452
I45
sS'lenders'
p3453
I3470
sS'sanctioned'
p3454
I3471
sVunpalatable
p3455
I3472
sS'demobilized'
p3456
I3473
sS'disarm'
p3457
I3474
sS'cautions'
p3458
I3475
sS'twining'
p3459
I3476
sVrepentant
p3460
I3477
sVunofficially
p3461
I3478
sS'including'
p3462
I3479
sS'stimulating'
p3463
I3480
sVsurmountable
p3464
I2188
sS'flattering'
p3465
I3482
sS'fertile'
p3466
I1988
sS'darken'
p3467
I2034
sS'happiest'
p3468
I3484
sS'argumentative'
p3469
I4167
sS'superior'
p3470
I3486
sS'normality'
p3471
I3487
sS'outer'
p3472
I3488
sS'exclusion'
p3473
I3489
sVovervalue
p3474
I3490
sVfemale_parent
p3475
I3491
sVinclusion
p3476
I3492
sVlanded
p3477
I3493
sVimperfection
p3478
I3494
sS'shortened'
p3479
I3495
sS'untreated'
p3480
I3496
sVmental
p3481
I3497
sVwilling
p3482
I3498
sVsensitiveness
p3483
I4019
sS'insulator'
p3484
I3499
sS'prohibit'
p3485
I3501
sS'unites'
p3486
I3426
sVimbalance
p3487
I3503
sS'infertile'
p3488
I3504
sVacquit
p3489
I3295
sS'violating'
p3490
I3505
sVnonfatal
p3491
I3506
sS'impervious'
p3492
I1974
sS'bolder'
p3493
I3508
sVaggrade
p3494
I3509
sS'justifiably'
p3495
I3428
sS'blessed'
p3496
I3511
sS'negligent'
p3497
I3512
sVunimpressively
p3498
I3513
sS'seawater'
p3499
I3514
sS'resolve'
p3500
I3515
sVasymmetrical
p3501
I2472
sVfront
p3502
I3518
sVdocumented
p3503
I3519
sS'kindness'
p3504
I720
sS'impotence'
p3505
I3360
sS'artefacts'
p3506
I3521
sS'dielectric'
p3507
I3522
sS'literacy'
p3508
I3523
sS'awaken'
p3509
I3525
sS'profound'
p3510
I3526
sS'tallied'
p3511
I3527
sS'immoral'
p3512
I3528
sVdemote
p3513
I3529
sVinadvisable
p3514
I3530
sS'freshness'
p3515
I461
sVirrelevance
p3516
I3532
sS'draftees'
p3517
I3533
sVsufficiently
p3518
I1858
sVtruth
p3519
I3535
sS'pleasures'
p3520
I3536
sVunevenly
p3521
I3537
sS'rising'
p3522
I3538
sS'beneath'
p3523
I3539
sS'uninteresting'
p3524
I3540
sS'adventurous'
p3525
I2411
sVwhiten
p3526
I3541
sS'homogeneous'
p3527
I3542
sVuntrustiness
p3528
I3906
sS'exacerbated'
p3529
I3543
sVlook_down_on
p3530
I3544
sS'privatisation'
p3531
I3545
sVvowel
p3532
I2499
sVunrhythmical
p3533
I3547
sS'lawful'
p3534
I4178
sVwaking
p3535
I3548
sS'staying'
p3536
I3549
sVrelated
p3537
I3550
sS'aggravated'
p3538
I3551
sS'zoology'
p3539
I4179
sVintangible
p3540
I2157
sS'licking'
p3541
I3554
sS'relates'
p3542
I3555
sS'satisfied'
p3543
I3556
sS'controversially'
p3544
I3558
sS'undemocratic'
p3545
I3454
sVdefend
p3546
I3307
sVunproductively
p3547
I3562
sVunlawful
p3548
I3563
sVenforceable
p3549
I3564
sVwholly
p3550
I3565
sS'escalate'
p3551
I1292
sS'bicameral'
p3552
I3567
sVstay_in_place
p3553
I3569
sS'maximized'
p3554
I3570
sS'unprepared'
p3555
I3571
sS'adaptive'
p3556
I3572
sVplural
p3557
I3573
sS'incompetence'
p3558
I3439
sS'affirming'
p3559
I3575
sVunreproducible
p3560
I3576
sS'dissented'
p3561
I3577
sVnonmechanical
p3562
I3578
sS'shut'
p3563
I3579
sS'perish'
p3564
I3580
sS'unwieldy'
p3565
I3581
sVunmemorably
p3566
I3582
sVdiscontinuity
p3567
I3583
sVundiplomatically
p3568
I115
sS'attending'
p3569
I2409
sS'completely'
p3570
I3587
sS'instructive'
p3571
I4225
sS'provident'
p3572
I3588
sVenfranchise
p3573
I143
sS'disintegrating'
p3574
I3590
sS'conservatives'
p3575
I3591
sVasynchronous
p3576
I3592
sS'likelihood'
p3577
I3593
sS'shortest'
p3578
I3594
sS'repairing'
p3579
I3595
sS'dismantled'
p3580
I3596
sVfertility
p3581
I1996
sVorganic
p3582
I3598
sVhostile
p3583
I189
sS'environmentalism'
p3584
I3600
sS'boarded'
p3585
I581
sS'synthesized'
p3586
I4189
sS'put'
p3587
I3603
sVkeep
p3588
I3604
sS'illicit'
p3589
I222
sVisotropic
p3590
I3606
sS'defendant'
p3591
I3607
sS'distrusted'
p3592
I3608
sS'appropriateness'
p3593
I257
sVsorrowful
p3594
I3610
sS'stimulate'
p3595
I3611
sS'softer'
p3596
I3612
sS'prospective'
p3597
I279
sS'incarnate'
p3598
I3614
sS'exonerated'
p3599
I3615
sVobscurity
p3600
I292
sS'succeeds'
p3601
I3385
sS'rhythmic'
p3602
I4205
sS'powerful'
p3603
I3618
sS'unsupported'
p3604
I3619
sS'introspective'
p3605
I3620
sVunproductiveness
p3606
I3621
sVweak
p3607
I3859
sVrugged
p3608
I3622
sS'dividing'
p3609
I3308
sS'synthesizing'
p3610
I3624
sVoverestimate
p3611
I3625
sVlong
p3612
I3626
sS'sadly'
p3613
I3627
sS'uninhabited'
p3614
I3628
sVextrinsic
p3615
I3629
sVunequivocal
p3616
I3630
sVunreliability
p3617
I2821
sS'unspecified'
p3618
I3632
sVcall_option
p3619
I1246
sVnonexploratory
p3620
I3634
sS'attach'
p3621
I409
sS'deducted'
p3622
I3636
sS'figuratively'
p3623
I4198
sS'inalienable'
p3624
I2189
sS'intelligence'
p3625
I3638
sS'wrapped'
p3626
I3639
sS'travelled'
p3627
I3640
sVbadness
p3628
I3641
sS'fairest'
p3629
I3642
sS'painful'
p3630
I3643
sVpaved
p3631
I3644
sS'disagreeable'
p3632
I3645
sS'terminates'
p3633
I4200
sVunscrupulous
p3634
I3647
sS'infallibility'
p3635
I3648
sS'plausibly'
p3636
I3649
sVshallow
p3637
I494
sVungrammatically
p3638
I3651
sS'depressing'
p3639
I3652
sS'monotheism'
p3640
I3653
sVbottom_out
p3641
I3654
sS'suitability'
p3642
I3655
sS'representational'
p3643
I3656
sS'diminish'
p3644
I534
sS'commence'
p3645
I3658
sVstressed
p3646
I3659
sS'accelerates'
p3647
I2445
sS'loved'
p3648
I3661
sS'succeeded'
p3649
I3663
sS'bloodiest'
p3650
I3664
sS'richer'
p3651
I3665
sVarmament
p3652
I3666
sVincompleteness
p3653
I3667
sVdefense
p3654
I3668
sS'loves'
p3655
I3669
sVlight
p3656
I3670
sVmonophony
p3657
I3671
sS'abolished'
p3658
I3672
sS'indistinct'
p3659
I3673
sVinsignificance
p3660
I641
sS'creditors'
p3661
I3676
sS'faulted'
p3662
I3677
sS'enforced'
p3663
I3678
sS'false'
p3664
I662
sS'separations'
p3665
I3680
sS'unchanged'
p3666
I2125
sVnonsurgical
p3667
I3682
sS'curves'
p3668
I3683
sS'comfortable'
p3669
I2327
sS'landless'
p3670
I3685
sVunavailability
p3671
I3686
sVobligatorily
p3672
I2084
sS'sundown'
p3673
I718
sVhave
p3674
I3689
sVclose
p3675
I3690
sVhost
p3676
I4141
sS'linked'
p3677
I3692
sVcomplete
p3678
I3693
sVacceleration
p3679
I3694
sVrotor
p3680
I754
sVafraid
p3681
I3696
sVdeodourise
p3682
I764
sS'propriety'
p3683
I3698
sS'vested'
p3684
I3699
sS'able'
p3685
I3700
sS'darkened'
p3686
I3012
sVincentive
p3687
I3702
sS'embarking'
p3688
I2714
sS'ably'
p3689
I3704
sS'best'
p3690
I725
sVsufficiency
p3691
I3706
sVdissuasive
p3692
I3707
sS'seductive'
p3693
I3708
sVcompetence
p3694
I3709
sS'vegetation'
p3695
I3710
sVaccuracy
p3696
I852
sVliberator
p3697
I3712
sVtolerably
p3698
I400
sVincorruptness
p3699
I3713
sVsatisfy
p3700
I3714
sS'immaterial'
p3701
I4068
sS'harmful'
p3702
I3715
sVcourtesy
p3703
I3716
sVconnected
p3704
I3717
sS'demise'
p3705
I3718
sS'eukaryotes'
p3706
I3719
sVunfaithfulness
p3707
I3720
sS'regressive'
p3708
I3721
sVunsexy
p3709
I3722
sVfuture
p3710
I3723
sS'intrinsic'
p3711
I3724
sS'payment'
p3712
I3725
sVdorsal
p3713
I3726
sVprove
p3714
I3727
sVdeny
p3715
I3728
sVhyperthyroidism
p3716
I971
sS'ignites'
p3717
I3730
sS'undeniable'
p3718
I3731
sS'enthusiastic'
p3719
I3732
sS'atypical'
p3720
I3733
sS'stronger'
p3721
I3734
sVreconcilable
p3722
I3735
sVpenitent
p3723
I1984
sS'lowered'
p3724
I4215
sS'artificially'
p3725
I3738
sVmilitarise
p3726
I3739
sS'mechanical'
p3727
I3740
sS'intensifies'
p3728
I3741
sVtypical
p3729
I3742
sS'normally'
p3730
I3743
sVunsystematic
p3731
I3744
sVincredibility
p3732
I3745
sVthicken
p3733
I3746
sS'insulators'
p3734
I3747
sVconvinced
p3735
I3748
sVfamiliarity
p3736
I3749
sS'agreed'
p3737
I3750
sVindoor
p3738
I3074
sS'terminate'
p3739
I3752
sS'centralized'
p3740
I3753
sVmalodorous
p3741
I3754
sVdissociate
p3742
I1117
sS'tearful'
p3743
I3756
sS'brine'
p3744
I3757
sS'unpaved'
p3745
I3758
sVhydrous
p3746
I3139
sS'fear'
p3747
I3760
sS'darkest'
p3748
I3761
sVunintelligibility
p3749
I3762
sS'pleased'
p3750
I1158
sS'subtracting'
p3751
I280
sS'nearer'
p3752
I3765
sS'monotheistic'
p3753
I1173
sS'holistic'
p3754
I3767
sS'unfinished'
p3755
I3768
sS'concurred'
p3756
I1186
sS'downstairs'
p3757
I3770
sVwinner
p3758
I3771
sVhopeful
p3759
I3772
sVemployer
p3760
I3773
sS'brighter'
p3761
I2073
sVdestabilisation
p3762
I3775
sS'obeys'
p3763
I3776
sS'disengaged'
p3764
I3777
sVemployee
p3765
I3778
sS'local'
p3766
I3779
sVinferior
p3767
I1255
sS'equilibrium'
p3768
I3781
sVdenaturalize
p3769
I3701
sS'righteousness'
p3770
I368
sVflash-forward
p3771
I1272
sS'perigee'
p3772
I1277
sS'disprove'
p3773
I3786
sVplaintiff
p3774
I3787
sVfamiliar
p3775
I3788
sS'unchained'
p3776
I3789
sS'vascular'
p3777
I2729
sS'genuine'
p3778
I3520
sVlucky
p3779
I3791
sS'enthroned'
p3780
I3792
sS'reputations'
p3781
I1315
sS'voided'
p3782
I3794
sS'occupant'
p3783
I2222
sS'acidic'
p3784
I3796
sS'proscribed'
p3785
I3133
sS'ascended'
p3786
I3798
sS'lossless'
p3787
I1353
sVnonspatial
p3788
I3107
sS'evolution'
p3789
I3801
sVdishearten
p3790
I3802
sVsanely
p3791
I3803
sS'unauthorized'
p3792
I1381
sS'ended'
p3793
I1331
sS'adaptability'
p3794
I3806
sVwellness
p3795
I1395
sVmarried
p3796
I3808
sS'expansions'
p3797
I3809
sVinsectivorous
p3798
I3810
sS'relents'
p3799
I4226
sVcounterfeit
p3800
I3813
sS'avoidable'
p3801
I3814
sS'queries'
p3802
I3815
sS'tightening'
p3803
I3816
sS'fixed'
p3804
I3818
sVfallibility
p3805
I3819
sVdiscontentment
p3806
I3820
sS'warred'
p3807
I3821
sS'strengthened'
p3808
I1468
sS'multiplying'
p3809
I1475
sVdownward
p3810
I3824
sVmarginality
p3811
I3825
sS'omitting'
p3812
I3826
sVfreeze
p3813
I3827
sVdislodge
p3814
I1511
sVgeometrically
p3815
I1520
sS'usefulness'
p3816
I3830
sS'unfairly'
p3817
I3831
sS'refrained'
p3818
I3832
sVhumane
p3819
I2856
sVendothermic
p3820
I3834
sS'packed'
p3821
I3835
sVdanger
p3822
I3836
sS'disjunct'
p3823
I3837
sVinvulnerable
p3824
I2596
sS'partisan'
p3825
I3839
sVinefficaciously
p3826
I3840
sVdematerialise
p3827
I3841
sVdiverge
p3828
I2687
sVperipherally
p3829
I3843
sVwritten
p3830
I3844
sS'unravel'
p3831
I3845
sVinjustice
p3832
I3846
sS'correctly'
p3833
I1698
sS'legitimize'
p3834
I3848
sS'nuclear'
p3835
I3849
sS'email'
p3836
I3850
sVexoteric
p3837
I3921
sS'tied'
p3838
I3589
sS'wisely'
p3839
I3852
sVvariability
p3840
I3853
sS'comparable'
p3841
I3854
sS'faceless'
p3842
I511
sVability
p3843
I3856
sVopening
p3844
I1665
sS'importance'
p3845
I3858
sVjoy
p3846
I456
sS'sorrow'
p3847
I3860
sS'steepest'
p3848
I3861
sVefficiency
p3849
I3862
sVnonwoody
p3850
I3863
sVdisproportionately
p3851
I3098
sVoptional
p3852
I3865
sS'multiculturalism'
p3853
I4236
sS'declining'
p3854
I3867
sS'undetermined'
p3855
I3869
sS'unstoppable'
p3856
I3870
sVtrimmed
p3857
I3871
sVdiligent
p3858
I3872
sS'disobeyed'
p3859
I3873
sS'whispered'
p3860
I3874
sVequal
p3861
I3875
sVagree
p3862
I2046
sS'voiceless'
p3863
I3877
sVadmit
p3864
I3878
sS'busted'
p3865
I3879
sS'acyclic'
p3866
I3880
sVnontoxic
p3867
I1824
sVhighland
p3868
I1829
sS'decorum'
p3869
I3883
sS'glorious'
p3870
I3884
sS'unconvincing'
p3871
I3885
sS'withdraws'
p3872
I3886
sVroughen
p3873
I3887
sVcompromising
p3874
I1855
sS'disenfranchised'
p3875
I3889
sS'gone'
p3876
I3890
sVmendacity
p3877
I3369
sS'unbelievable'
p3878
I3755
sS'disarmament'
p3879
I1881
sS'paranormal'
p3880
I3894
sS'laity'
p3881
I3895
sS'competent'
p3882
I3896
sS'worldly'
p3883
I1919
sS'kings'
p3884
I3898
sS'narrowed'
p3885
I3899
sS'crystalline'
p3886
I3900
sS'rougher'
p3887
I3516
sS'unclean'
p3888
I3568
sS'quit'
p3889
I3903
sS'protective'
p3890
I3904
sS'brotherly'
p3891
I3905
sS'subsurface'
p3892
I3273
sVdisintegrate
p3893
I108
sS'deaths'
p3894
I4240
sS'covertly'
p3895
I3908
sS'conjoined'
p3896
I3909
sS'inertia'
p3897
I3910
sS'validating'
p3898
I3911
sS'liberals'
p3899
I2007
sVincomprehension
p3900
I3807
sS'attends'
p3901
I3914
sVminimise
p3902
I3915
sVwinter_solstice
p3903
I2027
sS'hottest'
p3904
I3917
sVbottlefeed
p3905
I3918
sS'closed'
p3906
I3847
sVasymmetrically
p3907
I3920
sS'optionally'
p3908
I523
sS'corresponding'
p3909
I2065
sVretrospective
p3910
I3923
sS'discriminatory'
p3911
I2959
sVsufficient
p3912
I3924
sS'coherence'
p3913
I3008
sS'varietal'
p3914
I3926
sVunadaptability
p3915
I4227
sS'bulk'
p3916
I3928
sVfinished
p3917
I2109
sVtense
p3918
I2114
sS'slowing'
p3919
I4244
sS'hateful'
p3920
I3932
sS'covered'
p3921
I3502
sS'enforces'
p3922
I3688
sVimproved
p3923
I3933
sS'altruism'
p3924
I3934
sS'expounded'
p3925
I3935
sVvolunteer
p3926
I1242
sVanticatalyst
p3927
I3937
sS'debtor'
p3928
I3938
sVhypotension
p3929
I3939
sVtoothless
p3930
I3940
sS'unlike'
p3931
I3941
sVunenlightening
p3932
I4247
sS'asexual'
p3933
I2176
sS'slept'
p3934
I3944
sValign
p3935
I3945
sVappearance
p3936
I2184
sVsmokeless
p3937
I3947
sS'pretentious'
p3938
I3948
sS'corresponded'
p3939
I3560
sS'reliability'
p3940
I3950
sS'inaccurately'
p3941
I3951
sS'depreciation'
p3942
I3952
sS'diverged'
p3943
I2062
sS'advisable'
p3944
I3954
sS'discontinuation'
p3945
I3955
sVnoticed
p3946
I4195
sS'amenity'
p3947
I3956
sS'parallelogram'
p3948
I3957
sS'diminished'
p3949
I3958
sS'ripe'
p3950
I3959
sS'illegible'
p3951
I3212
sS'resident'
p3952
I3960
sS'delaying'
p3953
I2276
sVdisapprove
p3954
I818
sVsurface
p3955
I2288
sS'respected'
p3956
I2294
sVhearten
p3957
I3965
sVoptimistic
p3958
I3966
sVmaladaptive
p3959
I3967
sS'claimed'
p3960
I3968
sS'unplanned'
p3961
I1360
sVbloodless
p3962
I3969
sS'sits'
p3963
I3970
sVconserve
p3964
I3971
sVdescriptive
p3965
I3507
sVunfaithfully
p3966
I3973
sVuptime
p3967
I2264
sVincautiously
p3968
I3975
sS'productivity'
p3969
I3976
sVunacceptability
p3970
I3977
sS'admitted'
p3971
I3978
sVgeneric
p3972
I3979
sS'began'
p3973
I3980
sS'progressing'
p3974
I3981
sVindistinguishable
p3975
I3982
sS'defiant'
p3976
I3983
sS'member'
p3977
I3984
sS'contraindications'
p3978
I3985
sVunintelligently
p3979
I3986
sS'strange'
p3980
I3987
sVbe_born
p3981
I3988
sVmerciful
p3982
I3989
sVunprophetic
p3983
I3990
sS'largest'
p3984
I3991
sS'soundness'
p3985
I3992
sS'complexities'
p3986
I911
sVprivileged
p3987
I3994
sS'frivolous'
p3988
I1490
sVdifficult
p3989
I3996
sVinjured
p3990
I3997
sVmaterial
p3991
I3510
sVunconventional
p3992
I3998
sS'emotionally'
p3993
I3999
sS'cubic'
p3994
I4000
sVeccentric
p3995
I4001
sVretarded
p3996
I4002
sVendogamy
p3997
I3336
sS'unsympathetic'
p3998
I1982
sS'diplomatically'
p3999
I4005
sVundescriptive
p4000
I4006
sVpolytheistic
p4001
I4007
sVunobvious
p4002
I4008
sVunclutter
p4003
I4009
sS'sisters'
p4004
I2506
sS'frequently'
p4005
I3381
sVwrongly
p4006
I4012
sVill-being
p4007
I4013
sVexpand
p4008
I2528
sS'energized'
p4009
I4015
sVillogical
p4010
I4016
sVoff
p4011
I4017
sVextramural
p4012
I4018
sVwhole
p4013
I2763
sS'disoriented'
p4014
I4020
sS'insurmountable'
p4015
I4021
sVreliableness
p4016
I4022
sVincoordination
p4017
I2430
sS'credibility'
p4018
I4024
sVdecentralization
p4019
I4025
sVexplicable
p4020
I2609
sVdiversify
p4021
I4027
sS'personalised'
p4022
I2630
sS'spherical'
p4023
I4029
sS'upgraded'
p4024
I4030
sS'taller'
p4025
I412
sVarming
p4026
I451
sVde-escalate
p4027
I4033
sS'accurate'
p4028
I4034
sVdomestic
p4029
I4035
sS'necessitate'
p4030
I4036
sVinadequate
p4031
I4242
sVlossy
p4032
I4037
sS'distant'
p4033
I4038
sS'scholarly'
p4034
I4261
sS'merge'
p4035
I4040
sVgeneric_wine
p4036
I2709
sVoutbred
p4037
I4042
sS'dissuaded'
p4038
I2724
sS'unplugged'
p4039
I3817
sVconsume
p4040
I2898
sS'generous'
p4041
I4046
sVclaim
p4042
I4047
sVclergyman
p4043
I4048
sVunite
p4044
I4049
sS'intercontinental'
p4045
I4050
sVcommon
p4046
I4051
sS'residential'
p4047
I4052
sVpassively
p4048
I4053
sS'unsigned'
p4049
I4054
sS'capabilities'
p4050
I4055
sVday
p4051
I4056
sVadd
p4052
I4057
sS'valid'
p4053
I4058
sS'attractive'
p4054
I4059
sVmeagerly
p4055
I4060
sVcitizen
p4056
I2151
sS'unprecedented'
p4057
I2832
sVomnidirectional
p4058
I2052
sS'characteristically'
p4059
I1445
sVsonic
p4060
I2845
sS'increased'
p4061
I4066
sVample
p4062
I4067
sS'disappearance'
p4063
I2863
sS'spatial'
p4064
I2085
sVfearlessness
p4065
I3287
sVsolvency
p4066
I4070
sVcriminalize
p4067
I2
sVunbalance
p4068
I4072
sVunquestionable
p4069
I4073
sVknot
p4070
I4074
sS'resolves'
p4071
I4075
sS'securities'
p4072
I4076
sVamply
p4073
I4077
sS'passable'
p4074
I4078
sS'disservice'
p4075
I3892
sVdescendant
p4076
I4079
sVcauline
p4077
I4080
sVimproper
p4078
I4081
sS'necessary'
p4079
I4082
sVlike
p4080
I266
sS'excluding'
p4081
I3015
sVdepersonalise
p4082
I4085
sS'safest'
p4083
I4086
sVinfeasibility
p4084
I2985
sVqualitative
p4085
I4088
sVloser
p4086
I2998
sS'loses'
p4087
I3003
sS'payments'
p4088
I4091
sS'conscripts'
p4089
I3020
sS'lose'
p4090
I3023
sVdivest
p4091
I3031
sVsoft
p4092
I3039
sS'inexperienced'
p4093
I3045
sVaccessible
p4094
I4097
sVoutfield
p4095
I3196
sVnonspherical
p4096
I4099
sS'allowed'
p4097
I4100
sVirresponsibly
p4098
I4101
sVwindward
p4099
I4102
sS'concave'
p4100
I3531
sS'upgrades'
p4101
I4104
sS'alive'
p4102
I4105
sVfresh_water
p4103
I4106
sS'corroborate'
p4104
I4107
sS'daylight'
p4105
I4108
sS'growth'
p4106
I4109
sVinclude
p4107
I3566
sVworthy
p4108
I3331
sVconvex
p4109
I603
sS'proper'
p4110
I4113
sVwieldy
p4111
I4114
sS'liking'
p4112
I4115
sS'supportive'
p4113
I4116
sVemployment
p4114
I3142
sVvarietal_wine
p4115
I4118
sVuncontroversially
p4116
I4119
sVcontested
p4117
I4120
sVindefinite
p4118
I4121
sVineligibility
p4119
I4122
sVunpredictable
p4120
I2255
sVliterally
p4121
I3186
sS'avoid'
p4122
I4125
sVlegato
p4123
I2558
sS'rewarding'
p4124
I2004
sVoutgo
p4125
I4128
sVinaccessibility
p4126
I4129
sVnonfinancial
p4127
I4130
sS'gabled'
p4128
I710
sS'salaried'
p4129
I4132
sVimpolitely
p4130
I4133
sVnonviolently
p4131
I4134
sVleader
p4132
I4135
sS'weakest'
p4133
I2906
sVungraciously
p4134
I4136
sVobey
p4135
I738
sVincorrectness
p4136
I4138
sS'silencing'
p4137
I4139
sVdownmarket
p4138
I3297
sS'consonants'
p4139
I2733
sS'unambiguously'
p4140
I3868
sS'prohibited'
p4141
I4143
sVunsuitability
p4142
I4144
sVhospitable
p4143
I354
sVnonconformity
p4144
I4146
sVintense
p4145
I3034
sS'kinder'
p4146
I4148
sS'individualism'
p4147
I1079
sVinconsiderate
p4148
I4150
sS'sister'
p4149
I4151
sS'actual'
p4150
I4152
sVlinger
p4151
I4153
sVcertainty
p4152
I3395
sS'ingest'
p4153
I635
sS'compatible'
p4154
I4156
sS'blessings'
p4155
I4157
sVtoadstool
p4156
I3430
sS'blackness'
p4157
I4159
sS'seedy'
p4158
I1985
sVupward
p4159
I4161
sS'eloquently'
p4160
I4162
sS'software'
p4161
I4163
sS'outset'
p4162
I1879
sS'stator'
p4163
I4165
sVopacity
p4164
I4098
sVnontranslational
p4165
I3485
sS'unfavourable'
p4166
I4168
sS'discontinuities'
p4167
I4103
sVunbox
p4168
I3500
sS'booed'
p4169
I3218
sS'functional'
p4170
I4171
sVlow_quality
p4171
I4172
sS'mushrooms'
p4172
I3524
sS'political'
p4173
I4169
sS'acquitted'
p4174
I4175
sS'esteem'
p4175
I4176
sS'female'
p4176
I4177
sS'equitable'
p4177
I2100
sVnegate
p4178
I3552
sVpervious
p4179
I4180
sVforceless
p4180
I3557
sS'pointless'
p4181
I4182
sVimproperness
p4182
I4183
sVunfashionable
p4183
I4184
sVantitype
p4184
I4185
sS'terminated'
p4185
I4186
sVimpatience
p4186
I4187
sVelastic
p4187
I4188
sS'rushed'
p4188
I3602
sS'egalitarian'
p4189
I2502
sS'airworthy'
p4190
I4191
sS'weeps'
p4191
I4192
sS'reduction'
p4192
I4193
sVdisapproval
p4193
I4194
sS'smoothing'
p4194
I941
sS'boycotting'
p4195
I3065
sVspread
p4196
I4197
sVfidelity
p4197
I3056
sVinvisibility
p4198
I2530
sS'resists'
p4199
I3646
sS'heresy'
p4200
I3405
sS'unresponsive'
p4201
I4202
sVdesecrate
p4202
I4203
sVpassionless
p4203
I2938
sS'naturally'
p4204
I4204
sVfunction
p4205
I1914
sS'fiscal'
p4206
I4206
sVbuy
p4207
I2219
sVelate
p4208
I3691
sVdestructible
p4209
I1646
sS'diminishes'
p4210
I3609
sS'believe'
p4211
I4211
sS'blaming'
p4212
I4212
sS'subjective'
p4213
I4213
sVinsured
p4214
I4214
sS'hierarchical'
p4215
I3737
sVgain
p4216
I4216
sVflexible
p4217
I4217
sS'highest'
p4218
I4219
sS'superhuman'
p4219
I2762
sS'partially'
p4220
I4221
sS'boarding'
p4221
I4222
sVwise
p4222
I3797
sS'absence'
p4223
I4224
sS'richly'
p4224
I1943
sS'demilitarized'
p4225
I3811
sVdangerous
p4226
I1745
sVofficial
p4227
I4228
sVsmooth
p4228
I1056
sVsigned
p4229
I4230
sS'imbalances'
p4230
I4231
sS'below'
p4231
I4232
sS'burdened'
p4232
I3553
sS'woke'
p4233
I4234
sVmake_peace
p4234
I776
sVdistribution
p4235
I3866
sVindiscreetly
p4236
I4237
sS'strengthens'
p4237
I4238
sS'advantages'
p4238
I2996
sS'rightly'
p4239
I4239
sS'repelled'
p4240
I3585
sVdestabilise
p4241
I4241
sVwhisper
p4242
I656
sS'topless'
p4243
I3927
sS'exogenous'
p4244
I3931
sVunselfishness
p4245
I4245
sS'worthiness'
p4246
I4246
sVfemale_monarch
p4247
I3942
sS'highlighted'
p4248
I4248
sVwell-defined
p4249
I4249
sVgoodness
p4250
I4250
sVunprintable
p4251
I135
sS'permeability'
p4252
I4252
sS'adversary'
p4253
I4147
sS'anaerobic'
p4254
I4253
sVcontinental
p4255
I4196
sS'unintelligible'
p4256
I4254
sS'improving'
p4257
I4255
sS'relaxing'
p4258
I3662
sS'incredible'
p4259
I4257
sS'fortunate'
p4260
I4258
sS'dressed'
p4261
I4218
sS'claiming'
p4262
I4260
sVsubsonic
p4263
I4039
sS'detain'
p4264
I4262
sVactiveness
p4265
I4263
sVamateur
p4266
I4264
sS'other'
p4267
I4265
sS'misconceptions'
p4268
I4266
sS'repute'
p4269
I4267
sS'incredibly'
p4270
I4268
sVnadir
p4271
I4269
sVunintelligibly
p4272
I4270
sS'illegally'
p4273
I4271
sS'colonized'
p4274
I460
sS'worker'
p4275
I4273
sVslowly
p4276
I4233
sS'dismantle'
p4277
I4275
sS'unsaturated'
p4278
I4276
sVimmodest
p4279
I3882
sS'enlargement'
p4280
I4278
sVimmoderately
p4281
I4279
sS'sped'
p4282
I4280
sS'earthly'
p4283
I4281
sS'inboard'
p4284
I4283
sVveil
p4285
I4284
sVirrationally
p4286
I4285
sS'upwards'
p4287
I582
sVunreasonably
p4288
I4287
sVunlikeliness
p4289
I4288
sS'clergymen'
p4290
I4289
sVintentionally
p4291
I4290
sS'atheism'
p4292
I4291
sS'cerebral'
p4293
I3559
sS'uneducated'
p4294
I4293
sS'rural'
p4295
I4282
sS'denies'
p4296
I4295
sS'expands'
p4297
I4296
sS'indirectly'
p4298
I1993
sVuntalented
p4299
I4298
sVincapability
p4300
I4299
s.